 testmodel_1109_xpc

 Timestamp is 566804a4 (Wed Dec 09 11:38:28 2015)

 Preferred load address is 10000000

 Start         Length     Name                   Class
 0001:00000000 00014678H .text                   CODE
 0002:00000000 00000108H .idata$5                DATA
 0002:00000108 00000004H .CRT$XCA                DATA
 0002:0000010c 00000004H .CRT$XCZ                DATA
 0002:00000110 00000004H .CRT$XIA                DATA
 0002:00000114 00000014H .CRT$XIC                DATA
 0002:00000128 00000004H .CRT$XIZ                DATA
 0002:0000012c 00000004H .CRT$XPA                DATA
 0002:00000130 00000004H .CRT$XPX                DATA
 0002:00000134 00000004H .CRT$XPXA               DATA
 0002:00000138 00000004H .CRT$XPZ                DATA
 0002:0000013c 00000004H .CRT$XTA                DATA
 0002:00000140 00000004H .CRT$XTZ                DATA
 0002:00000150 00006c48H .rdata                  DATA
 0002:00006da0 0000000cH .rdata$sxdata           DATA
 0002:00006dac 00000004H .rtc$IAA                DATA
 0002:00006db0 00000004H .rtc$IZZ                DATA
 0002:00006db4 00000004H .rtc$TAA                DATA
 0002:00006db8 00000004H .rtc$TZZ                DATA
 0002:00006dc0 000002f4H .xdata$x                DATA
 0002:000070b4 00000014H .idata$2                DATA
 0002:000070c8 00000014H .idata$3                DATA
 0002:000070dc 00000108H .idata$4                DATA
 0002:000071e4 000004b4H .idata$6                DATA
 0002:000076a0 000000c1H .edata                  DATA
 0003:00000000 00002110H .data                   DATA
 0003:00002120 00005064H .bss                    DATA

  Address         Publics by Value              Rva+Base       Lib:Object

 0000:00000000       __except_list              00000000     <absolute>
 0000:00000003       ___safe_se_handler_count   00000003     <absolute>
 0000:00000000       ___ImageBase               10000000     <linker-defined>
 0001:00000000       _MWDSP_EPH_R_B             10001000 f   testmodel_1109.obj
 0001:000000a0       _MWDSP_EPH_R_D             100010a0 f   testmodel_1109.obj
 0001:00000160       _rt_roundd_snf             10001160 f   testmodel_1109.obj
 0001:00002db0       _MdlOutputs                10003db0 f   testmodel_1109.obj
 0001:00002dc0       _MdlUpdate                 10003dc0 f   testmodel_1109.obj
 0001:00002dd0       _MdlStart                  10003dd0 f   testmodel_1109.obj
 0001:00002de0       _MdlTerminate              10003de0 f   testmodel_1109.obj
 0001:00002df0       _testmodel_1109            10003df0 f   testmodel_1109.obj
 0001:00004580       _rtGetInfF                 10005580 f   rtGetInf.obj
 0001:000045a0       _rtGetMinusInfF            100055a0 f   rtGetInf.obj
 0001:000045c0       _rtGetInf                  100055c0 f   rtGetInf.obj
 0001:000045e0       _rtGetMinusInf             100055e0 f   rtGetInf.obj
 0001:00004600       _rtGetNaNF                 10005600 f   rtGetNaN.obj
 0001:00004620       _rtGetNaN                  10005620 f   rtGetNaN.obj
 0001:00004640       _rt_InitInfAndNaN          10005640 f   rt_nonfinite.obj
 0001:00004690       _rtIsInf                   10005690 f   rt_nonfinite.obj
 0001:000046d0       _rtIsNaN                   100056d0 f   rt_nonfinite.obj
 0001:000046f0       _rt_ZCFcn                  100056f0 f   rt_zcfcn.obj
 0001:000047a0       _testmodel_1109_InitializeDataMapInfo 100057a0 f   testmodel_1109_capi.obj
 0001:00004800       _changeStepSize            10005800 f   xpctarget.obj
 0001:00004850       _MdlInitializeSizes        10005850 f   testmodel_1109.obj
 0001:00004850       _updateDiscreteEvents      10005850 f   xpctarget.obj
 0001:00004850       _MdlInitializeSampleTimes  10005850 f   testmodel_1109.obj
 0001:00004860       _DllMain@12                10005860 f   xpctarget.obj
 0001:00004870       _getrlmdlinfo              10005870 f   xpctarget.obj
 0001:00004a00       _getDLMVersion             10005a00 f   xpctarget.obj
 0001:000057b0       _sg_IO601_write_s_3        100067b0 f   sg_IO601_write_s_3.obj
 0001:00006730       _sg_IO601_setup_s_3        10007730 f   sg_IO601_setup_s_3.obj
 0001:00007210       _sg_IO601_read_s_3         10008210 f   sg_IO601_read_s_3.obj
 0001:00007520       _xpcInitProcs              10008520 f   xpcruntime:xpcimports.obj
 0001:00008220       _GetPCIDeviceFull          10009220 f   xpcruntime:xpcimports.obj
 0001:00008268       _malloc                    10009268 f   LIBCMT:malloc.obj
 0001:000082fc       __cfltcvt_init             100092fc f   LIBCMT:_fpinit_.obj
 0001:0000835c       __fpmath                   1000935c f   LIBCMT:_fpinit_.obj
 0001:00008380       _ceil                      10009380 f   LIBCMT:_ceil_pentium4_.obj
 0001:000083c0       __ceil_pentium4            100093c0 f   LIBCMT:_ceil_pentium4_.obj
 0001:000084a0       _floor                     100094a0 f   LIBCMT:_floor_pentium4_.obj
 0001:000084e0       __floor_pentium4           100094e0 f   LIBCMT:_floor_pentium4_.obj
 0001:000085d0       __allmul                   100095d0 f   LIBCMT:llmul.obj
 0001:00008610       _sin                       10009610 f   LIBCMT:_sin_.obj
 0001:00008650       __CIsin                    10009650 f   LIBCMT:_sin_.obj
 0001:0000868b       __CIsin_default            1000968b f   LIBCMT:_sin_.obj
 0001:0000869f       __sin_default              1000969f     LIBCMT:_sin_.obj
 0001:00008740       __ftol2_sse                10009740 f   LIBCMT:ftol2.obj
 0001:00008749       __ftol2_pentium4           10009749 f   LIBCMT:ftol2.obj
 0001:0000875c       __ftol2_sse_excpt          1000975c f   LIBCMT:ftol2.obj
 0001:00008776       __ftol2                    10009776 f   LIBCMT:ftol2.obj
 0001:000087f0       _fmod                      100097f0 f   LIBCMT:_87fmod_.obj
 0001:000087fa       __CIfmod                   100097fa f   LIBCMT:_87fmod_.obj
 0001:00008812       _printf                    10009812 f   LIBCMT:printf.obj
 0001:000088b9       __get_printf_count_output  100098b9 f   LIBCMT:printf.obj
 0001:000088d0       _memset                    100098d0 f   LIBCMT:memset.obj
 0001:0000894a       _free                      1000994a f   LIBCMT:free.obj
 0001:00008984       ___iob_func                10009984 f   LIBCMT:_file.obj
 0001:0000898a       ___initstdio               1000998a f   LIBCMT:_file.obj
 0001:00008a3b       ___endstdio                10009a3b f   LIBCMT:_file.obj
 0001:00008a5b       __lock_file                10009a5b f   LIBCMT:_file.obj
 0001:00008a9c       __lock_file2               10009a9c f   LIBCMT:_file.obj
 0001:00008ace       __unlock_file              10009ace f   LIBCMT:_file.obj
 0001:00008b0a       __unlock_file2             10009b0a f   LIBCMT:_file.obj
 0001:00008b39       @__security_check_cookie@4 10009b39 f   LIBCMT:secchk.obj
 0001:00008b50       _memcpy                    10009b50 f   LIBCMT:memcpy.obj
 0001:00008ec0       _memmove                   10009ec0 f   LIBCMT:memmove.obj
 0001:00009221       __fclose_nolock            1000a221 f   LIBCMT:fclose.obj
 0001:0000928e       _fclose                    1000a28e f   LIBCMT:fclose.obj
 0001:00009302       _sprintf                   1000a302 f   LIBCMT:sprintf.obj
 0001:00009390       _strncat                   1000a390 f   LIBCMT:strncat.obj
 0001:000094d0       _strncpy                   1000a4d0 f   LIBCMT:strncpy.obj
 0001:000095f4       ___crtCorExitProcess       1000a5f4 f   LIBCMT:crt0dat.obj
 0001:0000961f       ___crtExitProcess          1000a61f f   LIBCMT:crt0dat.obj
 0001:00009637       __lockexit                 1000a637 f   LIBCMT:crt0dat.obj
 0001:00009640       __unlockexit               1000a640 f   LIBCMT:crt0dat.obj
 0001:00009649       __init_pointers            1000a649 f   LIBCMT:crt0dat.obj
 0001:0000967c       __initterm_e               1000a67c f   LIBCMT:crt0dat.obj
 0001:000096a0       __cinit                    1000a6a0 f   LIBCMT:crt0dat.obj
 0001:00009877       __exit                     1000a877 f   LIBCMT:crt0dat.obj
 0001:0000988d       __cexit                    1000a88d f   LIBCMT:crt0dat.obj
 0001:0000989c       __amsg_exit                1000a89c f   LIBCMT:crt0dat.obj
 0001:000098ba       _realloc                   1000a8ba f   LIBCMT:realloc.obj
 0001:00009980       _strchr                    1000a980 f   LIBCMT:strchr.obj
 0001:00009986       ___from_strstr_to_strchr   1000a986     LIBCMT:strchr.obj
 0001:00009a3e       _strncmp                   1000aa3e f   LIBCMT:strncmp.obj
 0001:00009afe       __CRT_INIT@12              1000aafe f   LIBCMT:dllcrt0.obj
 0001:00009d58       __DllMainCRTStartup@12     1000ad58 f   LIBCMT:dllcrt0.obj
 0001:00009d7b       __GET_RTERRMSG             1000ad7b f   LIBCMT:crt0msg.obj
 0001:00009da1       __NMSG_WRITE               1000ada1 f   LIBCMT:crt0msg.obj
 0001:00009f50       __FF_MSGBANNER             1000af50 f   LIBCMT:crt0msg.obj
 0001:00009f89       __heap_init                1000af89 f   LIBCMT:heapinit.obj
 0001:00009fa7       __heap_term                1000afa7 f   LIBCMT:heapinit.obj
 0001:00009fbb       __get_errno_from_oserr     1000afbb f   LIBCMT:dosmap.obj
 0001:00009ffd       __errno                    1000affd f   LIBCMT:dosmap.obj
 0001:0000a010       ___doserrno                1000b010 f   LIBCMT:dosmap.obj
 0001:0000a023       __dosmaperr                1000b023 f   LIBCMT:dosmap.obj
 0001:0000a046       __initp_heap_handler       1000b046 f   LIBCMT:handler.obj
 0001:0000a055       __callnewh                 1000b055 f   LIBCMT:handler.obj
 0001:0000a07d       ??0_LocaleUpdate@@QAE@PAUlocaleinfo_struct@@@Z 1000b07d f i LIBCMT:cvt.obj
 0001:0000a104       __forcdecpt_l              1000b104 f   LIBCMT:cvt.obj
 0001:0000a178       __cropzeros_l              1000b178 f   LIBCMT:cvt.obj
 0001:0000a1fa       __positive                 1000b1fa f   LIBCMT:cvt.obj
 0001:0000a216       __fassign_l                1000b216 f   LIBCMT:cvt.obj
 0001:0000a258       __fassign                  1000b258 f   LIBCMT:cvt.obj
 0001:0000a291       __forcdecpt                1000b291 f   LIBCMT:cvt.obj
 0001:0000a2a4       __cropzeros                1000b2a4 f   LIBCMT:cvt.obj
 0001:0000a418       __cftoe_l                  1000b418 f   LIBCMT:cvt.obj
 0001:0000a4df       __cftoe                    1000b4df f   LIBCMT:cvt.obj
 0001:0000a4ff       __cftoa_l                  1000b4ff f   LIBCMT:cvt.obj
 0001:0000a978       __cftof_l                  1000b978 f   LIBCMT:cvt.obj
 0001:0000aa39       __cftog_l                  1000ba39 f   LIBCMT:cvt.obj
 0001:0000ab26       __cfltcvt_l                1000bb26 f   LIBCMT:cvt.obj
 0001:0000abae       __cfltcvt                  1000bbae f   LIBCMT:cvt.obj
 0001:0000abd1       __initp_misc_cfltcvt_tab   1000bbd1 f   LIBCMT:cmiscdat.obj
 0001:0000abf4       __setdefaultprecision      1000bbf4 f   LIBCMT:fp8.obj
 0001:0000ac1c       ___libm_error_support      1000bc1c f   LIBCMT:_libm_error_.obj
 0001:0000aee8       __sse2_mathfcns_init       1000bee8 f   LIBCMT:_mathfcns_.obj
 0001:0000aef8       __ceil_default             1000bef8 f   LIBCMT:_ceil_.obj
 0001:0000afd0       __floor_default            1000bfd0 f   LIBCMT:_floor_.obj
 0001:0000b0b0       __CIsin_pentium4           1000c0b0 f   LIBCMT:_sin_pentium4_.obj
 0001:0000b0c8       __sin_pentium4             1000c0c8     LIBCMT:_sin_pentium4_.obj
 0001:0000b280       __trandisp1                1000c280 f   LIBCMT:_87disp_.obj
 0001:0000b2e7       __trandisp2                1000c2e7 f   LIBCMT:_87disp_.obj
 0001:0000b373       __rttospopde               1000c373     LIBCMT:_87disp_.obj
 0001:0000b378       __rttospop                 1000c378     LIBCMT:_87disp_.obj
 0001:0000b37a       __rtnospop                 1000c37a     LIBCMT:_87disp_.obj
 0001:0000b37c       __rttosnpop                1000c37c     LIBCMT:_87disp_.obj
 0001:0000b37d       __rtnospopde               1000c37d     LIBCMT:_87disp_.obj
 0001:0000b384       __rtzeropop                1000c384     LIBCMT:_87disp_.obj
 0001:0000b386       __rtzeronpop               1000c386     LIBCMT:_87disp_.obj
 0001:0000b38b       __rtonepop                 1000c38b     LIBCMT:_87disp_.obj
 0001:0000b38d       __rtonenpop                1000c38d     LIBCMT:_87disp_.obj
 0001:0000b392       __tosnan1                  1000c392     LIBCMT:_87disp_.obj
 0001:0000b3bd       __nosnan2                  1000c3bd     LIBCMT:_87disp_.obj
 0001:0000b3bf       __tosnan2                  1000c3bf     LIBCMT:_87disp_.obj
 0001:0000b3e7       __nan2                     1000c3e7     LIBCMT:_87disp_.obj
 0001:0000b426       __rtindfpop                1000c426     LIBCMT:_87disp_.obj
 0001:0000b428       __rtindfnpop               1000c428     LIBCMT:_87disp_.obj
 0001:0000b439       __rttosnpopde              1000c439     LIBCMT:_87disp_.obj
 0001:0000b443       __rtchsifneg               1000c443     LIBCMT:_87disp_.obj
 0001:0000b450       __twoToTOS                 1000c450 f   LIBCMT:_common_.obj
 0001:0000b465       __load_CW                  1000c465 f   LIBCMT:_common_.obj
 0001:0000b47c       __convertTOStoQNaN         1000c47c f   LIBCMT:_common_.obj
 0001:0000b495       __fload_withFB             1000c495 f   LIBCMT:_common_.obj
 0001:0000b4d8       __checkTOS_withFB          1000c4d8 f   LIBCMT:_common_.obj
 0001:0000b4ee       __fast_exit                1000c4ee f   LIBCMT:_common_.obj
 0001:0000b4fb       __math_exit                1000c4fb f   LIBCMT:_common_.obj
 0001:0000b525       __check_overflow_exit      1000c525 f   LIBCMT:_common_.obj
 0001:0000b539       __check_range_exit         1000c539 f   LIBCMT:_common_.obj
 0001:0000b5e0       __startTwoArgErrorHandling 1000c5e0 f   LIBCMT:_genexcep_.obj
 0001:0000b5f7       __startOneArgErrorHandling 1000c5f7 f   LIBCMT:_genexcep_.obj
 0001:0000b633       ___sse2_available_init     1000c633 f   LIBCMT:cpu_disp.obj
 0001:0000b650       __cintrindisp2             1000c650 f   LIBCMT:_87cdisp_.obj
 0001:0000b68e       __cintrindisp1             1000c68e f   LIBCMT:_87cdisp_.obj
 0001:0000b6cb       __ctrandisp2               1000c6cb f   LIBCMT:_87cdisp_.obj
 0001:0000b85a       __ctrandisp1               1000c85a f   LIBCMT:_87cdisp_.obj
 0001:0000b88d       __fload                    1000c88d f   LIBCMT:_87cdisp_.obj
 0001:0000b8c9       __stbuf                    1000c8c9 f   LIBCMT:_sftbuf.obj
 0001:0000b965       __ftbuf                    1000c965 f   LIBCMT:_sftbuf.obj
 0001:0000ba40       __output_l                 1000ca40 f   LIBCMT:output.obj
 0001:0000c5ec       __initp_misc_invarg        1000d5ec f   LIBCMT:invarg.obj
 0001:0000c5fb       __call_reportfault         1000d5fb f   LIBCMT:invarg.obj
 0001:0000c724       __invoke_watson            1000d724 f   LIBCMT:invarg.obj
 0001:0000c749       __invalid_parameter        1000d749 f   LIBCMT:invarg.obj
 0001:0000c776       __invalid_parameter_noinfo 1000d776 f   LIBCMT:invarg.obj
 0001:0000c790       __SEH_prolog4              1000d790 f   LIBCMT:sehprolg4.obj
 0001:0000c7d5       __SEH_epilog4              1000d7d5 f   LIBCMT:sehprolg4.obj
 0001:0000c7f0       __except_handler4          1000d7f0 f   LIBCMT:chandler4.obj
 0001:0000c97f       __VEC_memzero              1000d97f f   LIBCMT:p4_memset.obj
 0001:0000ca39       __set_exp                  1000da39 f   LIBCMT:_util_.obj
 0001:0000ca66       __sptype                   1000da66 f   LIBCMT:_util_.obj
 0001:0000cacc       __decomp                   1000dacc f   LIBCMT:_util_.obj
 0001:0000cb8f       __raise_exc_ex             1000db8f f   LIBCMT:_fpexcept_.obj
 0001:0000ce6b       __raise_exc                1000de6b f   LIBCMT:_fpexcept_.obj
 0001:0000ce8e       __handle_exc               1000de8e f   LIBCMT:_fpexcept_.obj
 0001:0000d072       __set_errno_from_matherr   1000e072 f   LIBCMT:_fpexcept_.obj
 0001:0000d09f       __errcode                  1000e09f f   LIBCMT:_fpexcept_.obj
 0001:0000d0d3       __umatherr                 1000e0d3 f   LIBCMT:_fpexcept_.obj
 0001:0000d173       __handle_qnan1             1000e173 f   LIBCMT:_fpexcept_.obj
 0001:0000d1c8       __except1                  1000e1c8 f   LIBCMT:_fpexcept_.obj
 0001:0000d292       __statfp                   1000e292 f   LIBCMT:_fpctrl_.obj
 0001:0000d2a2       __clrfp                    1000e2a2 f   LIBCMT:_fpctrl_.obj
 0001:0000d2b3       __ctrlfp                   1000e2b3 f   LIBCMT:_fpctrl_.obj
 0001:0000d2de       __set_statfp               1000e2de f   LIBCMT:_fpctrl_.obj
 0001:0000d336       ___set_fpsr_sse2           1000e336 f   LIBCMT:_fpctrl_.obj
 0001:0000d3a8       __calloc_impl              1000e3a8 f   LIBCMT:calloc_impl.obj
 0001:0000d42a       __ioinit                   1000e42a f   LIBCMT:ioinit.obj
 0001:0000d66f       __ioterm                   1000e66f f   LIBCMT:ioinit.obj
 0001:0000d6c2       __fileno                   1000e6c2 f   LIBCMT:fileno.obj
 0001:0000d6e8       __malloc_crt               1000e6e8 f   LIBCMT:crtheap.obj
 0001:0000d72d       __calloc_crt               1000e72d f   LIBCMT:crtheap.obj
 0001:0000d779       __realloc_crt              1000e779 f   LIBCMT:crtheap.obj
 0001:0000d7c7       __fcloseall                1000e7c7 f   LIBCMT:closeall.obj
 0001:0000d863       __flush                    1000e863 f   LIBCMT:fflush.obj
 0001:0000d8cb       __fflush_nolock            1000e8cb f   LIBCMT:fflush.obj
 0001:0000d9ed       __flushall                 1000e9ed f   LIBCMT:fflush.obj
 0001:0000d9f6       __mtinitlocks              1000e9f6 f   LIBCMT:mlock.obj
 0001:0000da40       __mtdeletelocks            1000ea40 f   LIBCMT:mlock.obj
 0001:0000da97       __unlock                   1000ea97 f   LIBCMT:mlock.obj
 0001:0000daae       __mtinitlocknum            1000eaae f   LIBCMT:mlock.obj
 0001:0000db70       __lock                     1000eb70 f   LIBCMT:mlock.obj
 0001:0000dba3       ___report_gsfailure        1000eba3 f   LIBCMT:gs_report.obj
 0001:0000dca9       __flsbuf                   1000eca9 f   LIBCMT:_flsbuf.obj
 0001:0000de0d       __write_nolock             1000ee0d f   LIBCMT:write.obj
 0001:0000e50a       __write                    1000f50a f   LIBCMT:write.obj
 0001:0000e5de       __VEC_memcpy               1000f5de f   LIBCMT:p4_memcpy.obj
 0001:0000e6e1       __close_nolock             1000f6e1 f   LIBCMT:close.obj
 0001:0000e77d       __close                    1000f77d f   LIBCMT:close.obj
 0001:0000e841       __freebuf                  1000f841 f   LIBCMT:_freebuf.obj
 0001:0000e880       __local_unwind4            1000f880 f   LIBCMT:exsup4.obj
 0001:0000e956       __seh_longjmp_unwind4@4    1000f956 f   LIBCMT:exsup4.obj
 0001:0000e972       @_EH4_CallFilterFunc@8     1000f972 f   LIBCMT:exsup4.obj
 0001:0000e989       @_EH4_TransferToHandler@8  1000f989 f   LIBCMT:exsup4.obj
 0001:0000e9a2       @_EH4_GlobalUnwind2@8      1000f9a2 f   LIBCMT:exsup4.obj
 0001:0000e9bb       @_EH4_LocalUnwind@16       1000f9bb f   LIBCMT:exsup4.obj
 0001:0000e9d2       ?terminate@@YAXXZ          1000f9d2 f   LIBCMT:hooks.obj
 0001:0000ea0b       __initp_eh_hooks           1000fa0b f   LIBCMT:hooks.obj
 0001:0000ea1c       __initp_misc_winsig        1000fa1c f   LIBCMT:winsig.obj
 0001:0000ea71       ___get_sigabrt             1000fa71 f   LIBCMT:winsig.obj
 0001:0000ea7e       _raise                     1000fa7e f   LIBCMT:winsig.obj
 0001:0000ec21       __initp_misc_rand_s        1000fc21 f   LIBCMT:rand_s.obj
 0001:0000ec30       __initp_misc_purevirt      1000fc30 f   LIBCMT:inithelp.obj
 0001:0000ec3f       __encoded_null             1000fc3f f   LIBCMT:tidtable.obj
 0001:0000ec48       ___crtTlsAlloc@4           1000fc48 f   LIBCMT:tidtable.obj
 0001:0000ec51       ___set_flsgetvalue         1000fc51 f   LIBCMT:tidtable.obj
 0001:0000ec85       __mtterm                   1000fc85 f   LIBCMT:tidtable.obj
 0001:0000ecc2       __initptd                  1000fcc2 f   LIBCMT:tidtable.obj
 0001:0000ed76       __getptd_noexit            1000fd76 f   LIBCMT:tidtable.obj
 0001:0000edef       __getptd                   1000fdef f   LIBCMT:tidtable.obj
 0001:0000ee09       __freefls@4                1000fe09 f   LIBCMT:tidtable.obj
 0001:0000ef38       __freeptd                  1000ff38 f   LIBCMT:tidtable.obj
 0001:0000efa6       __mtinit                   1000ffa6 f   LIBCMT:tidtable.obj
 0001:0000f1d7       ___onexitinit              100101d7 f   LIBCMT:onexit.obj
 0001:0000f208       __onexit                   10010208 f   LIBCMT:onexit.obj
 0001:0000f244       _atexit                    10010244 f   LIBCMT:onexit.obj
 0001:0000f25b       __RTC_Initialize           1001025b f   LIBCMT:_initsect_.obj
 0001:0000f281       __RTC_Terminate            10010281 f   LIBCMT:_initsect_.obj
 0001:0000f2b0       __ValidateImageBase        100102b0 f   LIBCMT:pesect.obj
 0001:0000f2f0       __FindPESection            100102f0 f   LIBCMT:pesect.obj
 0001:0000f340       __IsNonwritableInCurrentImage 10010340 f   LIBCMT:pesect.obj
 0001:0000f3fc       _abort                     100103fc f   LIBCMT:abort.obj
 0001:0000f42f       ___crtMessageBoxW          1001042f f   LIBCMT:crtmboxw.obj
 0001:0000f59b       _wcsncpy_s                 1001059b f   LIBCMT:wcsncpy_s.obj
 0001:0000f668       _wcslen                    10010668 f   LIBCMT:wcslen.obj
 0001:0000f683       _wcscat_s                  10010683 f   LIBCMT:wcscat_s.obj
 0001:0000f6f8       _wcscpy_s                  100106f8 f   LIBCMT:wcscpy_s.obj
 0001:0000f75b       __set_error_mode           1001075b f   LIBCMT:errmode.obj
 0001:0000f79a       __setenvp                  1001079a f   LIBCMT:stdenvp.obj
 0001:0000fa10       __setargv                  10010a10 f   LIBCMT:stdargv.obj
 0001:0000facb       ___crtGetEnvironmentStringsA 10010acb f   LIBCMT:a_env.obj
 0001:0000fb62       __XcptFilter               10010b62 f   LIBCMT:winxfltr.obj
 0001:0000fcac       ___CppXcptFilter           10010cac f   LIBCMT:winxfltr.obj
 0001:0000fccc       ___security_init_cookie    10010ccc f   LIBCMT:gs_support.obj
 0001:0000fd70       _strlen                    10010d70 f   LIBCMT:strlen.obj
 0001:0000fe00       _strrchr                   10010e00 f   LIBCMT:strrchr.obj
 0001:00010050       ___updatetmbcinfo          10011050 f   LIBCMT:mbctype.obj
 0001:00010170       __setmbcp_nolock           10011170 f   LIBCMT:mbctype.obj
 0001:00010359       __setmbcp                  10011359 f   LIBCMT:mbctype.obj
 0001:000104f3       ___initmbctable            100114f3 f   LIBCMT:mbctype.obj
 0001:00010511       ___addlocaleref            10011511 f   LIBCMT:localref.obj
 0001:000105a0       ___removelocaleref         100115a0 f   LIBCMT:localref.obj
 0001:00010639       ___freetlocinfo            10011639 f   LIBCMT:localref.obj
 0001:00010784       __updatetlocinfoEx_nolock  10011784 f   LIBCMT:localref.obj
 0001:000107d1       ___updatetlocinfo          100117d1 f   LIBCMT:localref.obj
 0001:0001084a       __isdigit_l                1001184a f i LIBCMT:_ctype.obj
 0001:0001089b       _isdigit                   1001189b f i LIBCMT:_ctype.obj
 0001:000108c9       __tolower_l                100118c9 f   LIBCMT:tolower.obj
 0001:000109de       _tolower                   100119de f   LIBCMT:tolower.obj
 0001:00010a0a       __atodbl_l                 10011a0a f   LIBCMT:atodbl.obj
 0001:00010ab2       __atoflt_l                 10011ab2 f   LIBCMT:atodbl.obj
 0001:00010b5a       _strcpy_s                  10011b5a f   LIBCMT:strcpy_s.obj
 0001:00010bb9       __fptostr                  10011bb9 f   LIBCMT:_fptostr.obj
 0001:00010c6c       ___dtold                   10011c6c f   LIBCMT:_cfout_.obj
 0001:00010d1f       __fltout2                  10011d1f f   LIBCMT:_cfout_.obj
 0001:00010db0       __alldvrm                  10011db0 f   LIBCMT:lldvrm.obj
 0001:00010e90       __aullshr                  10011e90 f   LIBCMT:ullshr.obj
 0001:00010eaf       __fptrap                   10011eaf f   LIBCMT:crt0fp.obj
 0001:00010eb8       __controlfp_s              10011eb8 f   LIBCMT:_contrlfp_.obj
 0001:00010f17       __matherr                  10011f17 f   LIBCMT:_matherr_.obj
 0001:00010f1a       __frnd                     10011f1a f   LIBCMT:_frnd_.obj
 0001:00010f2e       __87except                 10011f2e f   LIBCMT:_87except_.obj
 0001:0001106d       __isatty                   1001206d f   LIBCMT:isatty.obj
 0001:000110c3       __wctomb_s_l               100120c3 f   LIBCMT:wctomb.obj
 0001:00011218       _wctomb_s                  10012218 f   LIBCMT:wctomb.obj
 0001:00011235       __isleadbyte_l             10012235 f i LIBCMT:_wctype.obj
 0001:0001126d       _isleadbyte                1001226d f i LIBCMT:_wctype.obj
 0001:00011280       __aulldvrm                 10012280 f   LIBCMT:ulldvrm.obj
 0001:00011315       __crt_debugger_hook        10012315 f   LIBCMT:dbghook.obj
 0001:0001131d       __commit                   1001231d f   LIBCMT:commit.obj
 0001:000113f6       __lseeki64_nolock          100123f6 f   LIBCMT:lseeki64.obj
 0001:0001147b       __lseeki64                 1001247b f   LIBCMT:lseeki64.obj
 0001:00011565       __getbuf                   10012565 f   LIBCMT:_getbuf.obj
 0001:000115ae       __putwch_nolock            100125ae f   LIBCMT:putwch.obj
 0001:000115f0       __mbtowc_l                 100125f0 f   LIBCMT:mbtowc.obj
 0001:00011706       _mbtowc                    10012706 f   LIBCMT:mbtowc.obj
 0001:00011720       __chkstk                   10012720 f   LIBCMT:chkstk.obj
 0001:00011720       __alloca_probe             10012720     LIBCMT:chkstk.obj
 0001:0001174b       __free_osfhnd              1001274b f   LIBCMT:osfinfo.obj
 0001:000117d1       __get_osfhandle            100127d1 f   LIBCMT:osfinfo.obj
 0001:0001183a       ___lock_fhandle            1001283a f   LIBCMT:osfinfo.obj
 0001:000118d9       __unlock_fhandle           100128d9 f   LIBCMT:osfinfo.obj
 0001:00011900       __global_unwind2           10012900 f   LIBCMT:exsup.obj
 0001:00011965       __local_unwind2            10012965 f   LIBCMT:exsup.obj
 0001:000119e9       __abnormal_termination     100129e9 f   LIBCMT:exsup.obj
 0001:00011a0c       __NLG_Notify1              10012a0c f   LIBCMT:exsup.obj
 0001:00011a15       __NLG_Notify               10012a15 f   LIBCMT:exsup.obj
 0001:00011a2c       __NLG_Dispatch2            10012a2c     LIBCMT:exsup.obj
 0001:00011a2c       __NLG_Dispatch             10012a2c     LIBCMT:exsup.obj
 0001:00011a34       __NLG_Call                 10012a34 f   LIBCMT:exsup.obj
 0001:00011a36       __NLG_Return2              10012a36     LIBCMT:exsup.obj
 0001:00011a37       __freea                    10012a37 f i LIBCMT:a_loc.obj
 0001:00011a57       __msize                    10012a57 f   LIBCMT:msize.obj
 0001:00011add       __ismbblead                10012add f   LIBCMT:ismbbyte.obj
 0001:00011cdc       ___crtLCMapStringA         10012cdc f   LIBCMT:a_map.obj
 0001:00011e09       ___crtGetStringTypeA       10012e09 f   LIBCMT:a_str.obj
 0001:00011e49       ___free_lc_time            10012e49 f   LIBCMT:inittime.obj
 0001:000121c0       ___free_lconv_num          100131c0 f   LIBCMT:initnum.obj
 0001:00012229       ___free_lconv_mon          10013229 f   LIBCMT:initmon.obj
 0001:00012327       __isctype_l                10013327 f   LIBCMT:isctype.obj
 0001:000123df       __ld12tod                  100133df f   LIBCMT:_intrncvt_.obj
 0001:00012930       __ld12tof                  10013930 f   LIBCMT:_intrncvt_.obj
 0001:00012e81       ___strgtold12_l            10013e81 f   LIBCMT:_strgtold_.obj
 0001:0001355d       _$I10_OUTPUT               1001455d f   LIBCMT:_x10fout_.obj
 0001:00013f83       __control87                10014f83 f i LIBCMT:_ieee87_.obj
 0001:00014295       ___initconout              10015295 f   LIBCMT:initcon.obj
 0001:000142b4       ___termconout              100152b4 f   LIBCMT:initcon.obj
 0001:000142d0       __alloca_probe_16          100152d0 f   LIBCMT:alloca16.obj
 0001:000142e6       __alloca_probe_8           100152e6     LIBCMT:alloca16.obj
 0001:00014300       _strcspn                   10015300 f   LIBCMT:strcspn.obj
 0001:00014350       _strcmp                    10015350 f   LIBCMT:strcmp.obj
 0001:000143e0       _strpbrk                   100153e0 f   LIBCMT:strpbrk.obj
 0001:00014420       ___mtold12                 10015420 f   LIBCMT:_mantold_.obj
 0001:00014610       ___ascii_strnicmp          10015610 f   LIBCMT:_strnicm.obj
 0001:00014672       _RtlUnwind@16              10015672 f   kernel32:KERNEL32.dll
 0002:00000000       __imp__GetProcAddress@8    10016000     kernel32:KERNEL32.dll
 0002:00000004       __imp__GetModuleHandleA@4  10016004     kernel32:KERNEL32.dll
 0002:00000008       __imp__HeapAlloc@12        10016008     kernel32:KERNEL32.dll
 0002:0000000c       __imp__GetLastError@0      1001600c     kernel32:KERNEL32.dll
 0002:00000010       __imp__HeapFree@12         10016010     kernel32:KERNEL32.dll
 0002:00000014       __imp__EnterCriticalSection@4 10016014     kernel32:KERNEL32.dll
 0002:00000018       __imp__LeaveCriticalSection@4 10016018     kernel32:KERNEL32.dll
 0002:0000001c       __imp__GetModuleHandleW@4  1001601c     kernel32:KERNEL32.dll
 0002:00000020       __imp__ExitProcess@4       10016020     kernel32:KERNEL32.dll
 0002:00000024       __imp__DecodePointer@4     10016024     kernel32:KERNEL32.dll
 0002:00000028       __imp__HeapReAlloc@16      10016028     kernel32:KERNEL32.dll
 0002:0000002c       __imp__WriteConsoleW@20    1001602c     kernel32:KERNEL32.dll
 0002:00000030       __imp__GetFileType@4       10016030     kernel32:KERNEL32.dll
 0002:00000034       __imp__GetStdHandle@4      10016034     kernel32:KERNEL32.dll
 0002:00000038       __imp__GetModuleFileNameW@12 10016038     kernel32:KERNEL32.dll
 0002:0000003c       __imp__GetCurrentThreadId@0 1001603c     kernel32:KERNEL32.dll
 0002:00000040       __imp__GetCommandLineA@0   10016040     kernel32:KERNEL32.dll
 0002:00000044       __imp__WriteFile@20        10016044     kernel32:KERNEL32.dll
 0002:00000048       __imp__HeapCreate@12       10016048     kernel32:KERNEL32.dll
 0002:0000004c       __imp__HeapDestroy@4       1001604c     kernel32:KERNEL32.dll
 0002:00000050       __imp__EncodePointer@4     10016050     kernel32:KERNEL32.dll
 0002:00000054       __imp__IsProcessorFeaturePresent@4 10016054     kernel32:KERNEL32.dll
 0002:00000058       __imp__UnhandledExceptionFilter@4 10016058     kernel32:KERNEL32.dll
 0002:0000005c       __imp__SetUnhandledExceptionFilter@4 1001605c     kernel32:KERNEL32.dll
 0002:00000060       __imp__IsDebuggerPresent@0 10016060     kernel32:KERNEL32.dll
 0002:00000064       __imp__TerminateProcess@8  10016064     kernel32:KERNEL32.dll
 0002:00000068       __imp__GetCurrentProcess@0 10016068     kernel32:KERNEL32.dll
 0002:0000006c       __imp__RaiseException@16   1001606c     kernel32:KERNEL32.dll
 0002:00000070       __imp__SetHandleCount@4    10016070     kernel32:KERNEL32.dll
 0002:00000074       __imp__InitializeCriticalSectionAndSpinCount@8 10016074     kernel32:KERNEL32.dll
 0002:00000078       __imp__GetStartupInfoW@4   10016078     kernel32:KERNEL32.dll
 0002:0000007c       __imp__DeleteCriticalSection@4 1001607c     kernel32:KERNEL32.dll
 0002:00000080       __imp__Sleep@4             10016080     kernel32:KERNEL32.dll
 0002:00000084       __imp__WideCharToMultiByte@32 10016084     kernel32:KERNEL32.dll
 0002:00000088       __imp__GetConsoleCP@0      10016088     kernel32:KERNEL32.dll
 0002:0000008c       __imp__GetConsoleMode@8    1001608c     kernel32:KERNEL32.dll
 0002:00000090       __imp__CloseHandle@4       10016090     kernel32:KERNEL32.dll
 0002:00000094       __imp__MultiByteToWideChar@24 10016094     kernel32:KERNEL32.dll
 0002:00000098       __imp__SetFilePointer@16   10016098     kernel32:KERNEL32.dll
 0002:0000009c       __imp__RtlUnwind@16        1001609c     kernel32:KERNEL32.dll
 0002:000000a0       __imp__LoadLibraryW@4      100160a0     kernel32:KERNEL32.dll
 0002:000000a4       __imp__TlsAlloc@0          100160a4     kernel32:KERNEL32.dll
 0002:000000a8       __imp__TlsGetValue@4       100160a8     kernel32:KERNEL32.dll
 0002:000000ac       __imp__TlsSetValue@8       100160ac     kernel32:KERNEL32.dll
 0002:000000b0       __imp__TlsFree@4           100160b0     kernel32:KERNEL32.dll
 0002:000000b4       __imp__InterlockedIncrement@4 100160b4     kernel32:KERNEL32.dll
 0002:000000b8       __imp__SetLastError@4      100160b8     kernel32:KERNEL32.dll
 0002:000000bc       __imp__InterlockedDecrement@4 100160bc     kernel32:KERNEL32.dll
 0002:000000c0       __imp__GetModuleFileNameA@12 100160c0     kernel32:KERNEL32.dll
 0002:000000c4       __imp__FreeEnvironmentStringsW@4 100160c4     kernel32:KERNEL32.dll
 0002:000000c8       __imp__GetEnvironmentStringsW@0 100160c8     kernel32:KERNEL32.dll
 0002:000000cc       __imp__QueryPerformanceCounter@4 100160cc     kernel32:KERNEL32.dll
 0002:000000d0       __imp__GetTickCount@0      100160d0     kernel32:KERNEL32.dll
 0002:000000d4       __imp__GetCurrentProcessId@0 100160d4     kernel32:KERNEL32.dll
 0002:000000d8       __imp__GetSystemTimeAsFileTime@4 100160d8     kernel32:KERNEL32.dll
 0002:000000dc       __imp__GetCPInfo@8         100160dc     kernel32:KERNEL32.dll
 0002:000000e0       __imp__GetACP@0            100160e0     kernel32:KERNEL32.dll
 0002:000000e4       __imp__GetOEMCP@0          100160e4     kernel32:KERNEL32.dll
 0002:000000e8       __imp__IsValidCodePage@4   100160e8     kernel32:KERNEL32.dll
 0002:000000ec       __imp__FlushFileBuffers@4  100160ec     kernel32:KERNEL32.dll
 0002:000000f0       __imp__SetStdHandle@8      100160f0     kernel32:KERNEL32.dll
 0002:000000f4       __imp__HeapSize@12         100160f4     kernel32:KERNEL32.dll
 0002:000000f8       __imp__LCMapStringW@24     100160f8     kernel32:KERNEL32.dll
 0002:000000fc       __imp__GetStringTypeW@16   100160fc     kernel32:KERNEL32.dll
 0002:00000100       __imp__CreateFileW@28      10016100     kernel32:KERNEL32.dll
 0002:00000104       \177KERNEL32_NULL_THUNK_DATA 10016104     kernel32:KERNEL32.dll
 0002:00000108       ___xc_a                    10016108     LIBCMT:crt0init.obj
 0002:0000010c       ___xc_z                    1001610c     LIBCMT:crt0init.obj
 0002:00000110       ___xi_a                    10016110     LIBCMT:crt0init.obj
 0002:00000128       ___xi_z                    10016128     LIBCMT:crt0init.obj
 0002:0000012c       ___xp_a                    1001612c     LIBCMT:crt0init.obj
 0002:00000138       ___xp_z                    10016138     LIBCMT:crt0init.obj
 0002:0000013c       ___xt_a                    1001613c     LIBCMT:crt0init.obj
 0002:00000140       ___xt_z                    10016140     LIBCMT:crt0init.obj
 0002:00000150       _testmodel_1109_M          10016150     testmodel_1109.obj
 0002:00000158       __real@0000000000000000    10016158     testmodel_1109.obj
 0002:00000160       __real@bfe0000000000000    10016160     testmodel_1109.obj
 0002:00000168       __real@3fe0000000000000    10016168     testmodel_1109.obj
 0002:00000170       __real@4330000000000000    10016170     testmodel_1109.obj
 0002:00000178       __real@41efffffffe00000    10016178     testmodel_1109.obj
 0002:00000180       __real@406fe00000000000    10016180     testmodel_1109.obj
 0002:00000188       __real@c1e0000000000000    10016188     testmodel_1109.obj
 0002:00000190       __real@41e0000000000000    10016190     testmodel_1109.obj
 0002:00000198       __real@4063a28c59d5433b    10016198     testmodel_1109.obj
 0002:000001a0       __real@41f0000000000000    100161a0     testmodel_1109.obj
 0002:000001a8       __real@4070000000000000    100161a8     testmodel_1109.obj
 0002:000001b0       __real@3ff0000000000000    100161b0     testmodel_1109.obj
 0002:000001b8       ??_C@_0M@NHKNLCAG@pos_vel?4dat?$AA@ 100161b8     testmodel_1109.obj
 0002:000001c8       __real@40d3880000000000    100161c8     testmodel_1109.obj
 0002:000001d0       __real@c0d3880000000000    100161d0     testmodel_1109.obj
 0002:000001d8       ??_C@_0BM@FIBEALDL@IO601?1Data?5Type?5Conversion2?$AA@ 100161d8     testmodel_1109.obj
 0002:000001f4       ??_C@_0BL@LEJAHLLN@IO601?1Data?5Type?5Conversion?$AA@ 100161f4     testmodel_1109.obj
 0002:00000210       ??_C@_0BM@HDDJFIPI@IO601?1Data?5Type?5Conversion1?$AA@ 10016210     testmodel_1109.obj
 0002:00000230       __real@8000000000000000    10016230     testmodel_1109.obj
 0002:00000238       ??_C@_02MMCGOBPI@ck?$AA@   10016238     testmodel_1109.obj
 0002:00000240       __real@4000000000000000    10016240     testmodel_1109.obj
 0002:00000248       __real@40c86a0000000000    10016248     testmodel_1109.obj
 0002:00000250       ??_C@_0DM@ECEOPMFE@IO601?1ReadQueueSS?1For?5Iterator?5S@ 10016250     testmodel_1109.obj
 0002:0000028c       ??_C@_0BI@PHJEPFFP@Error?5creating?5scope?51?6?$AA@ 1001628c     testmodel_1109.obj
 0002:000002a4       ??_C@_0BI@PEBACBDB@Error?5creating?5scope?53?6?$AA@ 100162a4     testmodel_1109.obj
 0002:000002bc       ??_C@_0BJ@CJPCDKGL@Error?5creating?5scope?511?6?$AA@ 100162bc     testmodel_1109.obj
 0002:000002d8       ??_C@_0BJ@CIDAFAFM@Error?5creating?5scope?510?6?$AA@ 100162d8     testmodel_1109.obj
 0002:000002f4       ??_C@_0BP@OMOIOGJO@testmodel_1109?1IO601?1Read?5?$CIv3?$CJ?$AA@ 100162f4     testmodel_1109.obj
 0002:00000314       ??_C@_09OPKJHFF@Read?5?$CIv3?$CJ?$AA@ 10016314     testmodel_1109.obj
 0002:00000320       ??_C@_0CA@DBALLENM@testmodel_1109?1IO601?1Setup?5?$CIv3?$CJ?$AA@ 10016320     testmodel_1109.obj
 0002:00000340       ??_C@_0L@DNFPLNJF@Setup?5?$CIv3?$CJ?$AA@ 10016340     testmodel_1109.obj
 0002:0000034c       ??_C@_0DF@ECOLCIKP@testmodel_1109?1IO601?1Initialize?1@ 1001634c     testmodel_1109.obj
 0002:00000384       ??_C@_0DL@DKMNDHH@testmodel_1109?1IO601?1Initialize?1@ 10016384     testmodel_1109.obj
 0002:000003c0       ??_C@_0DI@BDFDBDPB@testmodel_1109?1IO601?1Initialize?1@ 100163c0     testmodel_1109.obj
 0002:000003f8       ??_C@_0CO@JDHIMHLK@testmodel_1109?1IO601?1DefaultConf@ 100163f8     testmodel_1109.obj
 0002:00000428       ??_C@_0CJ@NNCENNFA@testmodel_1109?1IO601?1CANSend?1Wri@ 10016428     testmodel_1109.obj
 0002:00000454       ??_C@_0M@DDLOPEKH@Write?5?$CIv3?$CJ1?$AA@ 10016454     testmodel_1109.obj
 0002:00000460       ??_C@_0CI@HIHPJJFF@testmodel_1109?1IO601?1CANSend?1Wri@ 10016460     testmodel_1109.obj
 0002:00000488       ??_C@_0L@OMDHECFH@Write?5?$CIv3?$CJ?$AA@ 10016488     testmodel_1109.obj
 0002:00000494       ??_C@_03HBFGMJOD@rt_?$AA@  10016494     testmodel_1109.obj
 0002:00000498       ??_C@_04EPKDLPPB@tout?$AA@ 10016498     testmodel_1109.obj
 0002:000004a0       ??_C@_0BC@OJJPBDHH@FixedStepDiscrete?$AA@ 100164a0     testmodel_1109.obj
 0002:000004b8       __real@4049000000000000    100164b8     testmodel_1109.obj
 0002:000004c0       ??_C@_00CNPNBAHC@?$AA@     100164c0     testmodel_1109.obj
 0002:000004c8       __real@3f70624dd2f1a9fc    100164c8     testmodel_1109.obj
 0002:000004d0       _CAN_DATATYPE_GROUND       100164d0     can_datatype_ground.obj
 0002:00000be8       __real@bff0000000000000    10016be8     rt_logging.obj
 0002:00000c18       ??_C@_0BI@INNPNFJN@Memory?5Allocation?5Error?$AA@ 10016c18     rtw_modelmap_utils.obj
 0002:00000c30       ??_C@_05KNFBNCOH@float?$AA@ 10016c30     testmodel_1109_capi.obj
 0002:00000c38       ??_C@_08NHGKGJKC@uint16_T?$AA@ 10016c38     testmodel_1109_capi.obj
 0002:00000c44       ??_C@_0P@IIMKEEHB@unsigned?5short?$AA@ 10016c44     testmodel_1109_capi.obj
 0002:00000c54       ??_C@_06MOLJCAAB@int8_T?$AA@ 10016c54     testmodel_1109_capi.obj
 0002:00000c5c       ??_C@_0M@MPLPCMBL@signed?5char?$AA@ 10016c5c     testmodel_1109_capi.obj
 0002:00000c68       ??_C@_07NCEHLPOC@uint8_T?$AA@ 10016c68     testmodel_1109_capi.obj
 0002:00000c70       ??_C@_08CCMIKNJF@uint32_T?$AA@ 10016c70     testmodel_1109_capi.obj
 0002:00000c7c       ??_C@_0N@OFHMGPAL@unsigned?5int?$AA@ 10016c7c     testmodel_1109_capi.obj
 0002:00000c8c       ??_C@_0N@HINIGIGN@CAN_DATATYPE?$AA@ 10016c8c     testmodel_1109_capi.obj
 0002:00000c9c       ??_C@_07MMLECJPG@numeric?$AA@ 10016c9c     testmodel_1109_capi.obj
 0002:00000ca4       ??_C@_09JBMFCIMO@boolean_T?$AA@ 10016ca4     testmodel_1109_capi.obj
 0002:00000cb0       ??_C@_0O@PPAIJIHF@unsigned?5char?$AA@ 10016cb0     testmodel_1109_capi.obj
 0002:00000cc0       ??_C@_07BLNHOAMI@int32_T?$AA@ 10016cc0     testmodel_1109_capi.obj
 0002:00000cc8       ??_C@_03JBIPMCLC@int?$AA@  10016cc8     testmodel_1109_capi.obj
 0002:00000ccc       ??_C@_06CNMIJIPB@real_T?$AA@ 10016ccc     testmodel_1109_capi.obj
 0002:00000cd4       ??_C@_06BNJCAIGJ@double?$AA@ 10016cd4     testmodel_1109_capi.obj
 0002:00000cdc       ??_C@_0DJ@BGPIJOEG@IO601?1ReadQueueSS?1For?5Iterator?5S@ 10016cdc     testmodel_1109_capi.obj
 0002:00000d18       ??_C@_05NAMIGJNB@vinit?$AA@ 10016d18     testmodel_1109_capi.obj
 0002:00000d20       ??_C@_0EB@NLNMHBDB@IO601?1ReadQueueSS?1For?5Iterator?5S@ 10016d20     testmodel_1109_capi.obj
 0002:00000d64       ??_C@_02LNFHGPBG@X0?$AA@   10016d64     testmodel_1109_capi.obj
 0002:00000d68       ??_C@_0L@HPPBCIFA@TruthTable?$AA@ 10016d68     testmodel_1109_capi.obj
 0002:00000d74       ??_C@_0CO@JPDJMNEH@IO601?1CANSend?1J?9K?5Flip?9Flop1?1J?9K@ 10016d74     testmodel_1109_capi.obj
 0002:00000da4       ??_C@_0CN@LFHKPKNC@IO601?1CANSend?1J?9K?5Flip?9Flop1?1J?9K@ 10016da4     testmodel_1109_capi.obj
 0002:00000dd4       ??_C@_0CN@FLJIFFFH@IO601?1ReadQueueSS?1For?5Iterator?5S@ 10016dd4     testmodel_1109_capi.obj
 0002:00000e04       ??_C@_0CN@LODOIBMD@IO601?1ReadQueueSS?1For?5Iterator?5S@ 10016e04     testmodel_1109_capi.obj
 0002:00000e34       ??_C@_0O@LILIEJBO@InitialOutput?$AA@ 10016e34     testmodel_1109_capi.obj
 0002:00000e44       ??_C@_0DA@PGHGJDOF@IO601?1ReadQueueSS?1For?5Iterator?5S@ 10016e44     testmodel_1109_capi.obj
 0002:00000e74       ??_C@_0CG@MLOIINPD@IO601?1Initialize?1QuitError?1Write@ 10016e74     testmodel_1109_capi.obj
 0002:00000e9c       ??_C@_0CF@GHMGCHLH@IO601?1Initialize?1QuitError?1Const@ 10016e9c     testmodel_1109_capi.obj
 0002:00000ec4       ??_C@_0CF@HONNBGPG@IO601?1Initialize?1QuitError?1Const@ 10016ec4     testmodel_1109_capi.obj
 0002:00000eec       ??_C@_0CM@DMHGIEPM@IO601?1Initialize?1InitialPosition@ 10016eec     testmodel_1109_capi.obj
 0002:00000f18       ??_C@_0CL@MNMCNCKF@IO601?1Initialize?1InitialPosition@ 10016f18     testmodel_1109_capi.obj
 0002:00000f44       ??_C@_0CL@ICIDEEGC@IO601?1Initialize?1InitialPosition@ 10016f44     testmodel_1109_capi.obj
 0002:00000f70       ??_C@_0CL@KJKOBHKB@IO601?1Initialize?1InitialPosition@ 10016f70     testmodel_1109_capi.obj
 0002:00000f9c       ??_C@_0CJ@DMIMNNLK@IO601?1Initialize?1GetState?$CIms?$CJ?1Wr@ 10016f9c     testmodel_1109_capi.obj
 0002:00000fc8       ??_C@_0CF@KBLHOCOH@IO601?1Initialize?1GetState?$CIms?$CJ?1st@ 10016fc8     testmodel_1109_capi.obj
 0002:00000ff0       ??_C@_0CI@DIADENEG@IO601?1Initialize?1GetState?$CIms?$CJ?1Ti@ 10016ff0     testmodel_1109_capi.obj
 0002:00001018       ??_C@_0CK@IHMBEOEM@IO601?1Initialize?1GetState?$CIms?$CJ?1Ge@ 10017018     testmodel_1109_capi.obj
 0002:00001044       ??_C@_0CG@EBNFNLLB@IO601?1Initialize?1GetState?$CIms?$CJ?1Da@ 10017044     testmodel_1109_capi.obj
 0002:0000106c       ??_C@_0BM@MBPDBCPP@IO601?1CANSend?1movVel?1FragSt?$AA@ 1001706c     testmodel_1109_capi.obj
 0002:00001088       ??_C@_0BM@GJHFDHOG@IO601?1CANSend?1movVel?1FragEn?$AA@ 10017088     testmodel_1109_capi.obj
 0002:000010a4       ??_C@_0BM@JJFBFHEJ@IO601?1CANSend?1movVel?1D?9Len1?$AA@ 100170a4     testmodel_1109_capi.obj
 0002:000010c0       ??_C@_0BL@JNIPDDJ@IO601?1CANSend?1movVel?1D?9Len?$AA@ 100170c0     testmodel_1109_capi.obj
 0002:000010dc       ??_C@_0BJ@FJNMGFPN@IO601?1CANSend?1movVel?1Cmd?$AA@ 100170dc     testmodel_1109_capi.obj
 0002:000010f8       ??_C@_0BL@PIDBKHJM@IO601?1CANSend?1STOP?1StopCmd?$AA@ 100170f8     testmodel_1109_capi.obj
 0002:00001114       ??_C@_0BL@CDKHMJMJ@IO601?1CANSend?1STOP?1DataLen?$AA@ 10017114     testmodel_1109_capi.obj
 0002:00001130       ??_C@_0CH@NNHMAEGH@IO601?1CANSend?1GetState?5?$CIonce?$CJ?1po@ 10017130     testmodel_1109_capi.obj
 0002:00001158       ??_C@_0CL@MJMCPGNE@IO601?1CANSend?1GetState?5?$CIonce?$CJ?1Ge@ 10017158     testmodel_1109_capi.obj
 0002:00001184       ??_C@_0CI@GELOMNMJ@IO601?1CANSend?1GetState?5?$CIonce?$CJ?1Co@ 10017184     testmodel_1109_capi.obj
 0002:000011ac       ??_C@_0CI@EPJDJOAK@IO601?1CANSend?1GetState?5?$CIonce?$CJ?1Co@ 100171ac     testmodel_1109_capi.obj
 0002:000011d4       ??_C@_0BP@MPHBHALB@IO601?1DefaultConfig?1Write?5?$CIv3?$CJ?$AA@ 100171d4     testmodel_1109_capi.obj
 0002:000011f4       ??_C@_0BO@FIGKIEHE@IO601?1DefaultConfig?1Constant6?$AA@ 100171f4     testmodel_1109_capi.obj
 0002:00001214       ??_C@_0BO@HDEHNHLH@IO601?1DefaultConfig?1Constant5?$AA@ 10017214     testmodel_1109_capi.obj
 0002:00001234       ??_C@_0BO@GKFMOGPG@IO601?1DefaultConfig?1Constant4?$AA@ 10017234     testmodel_1109_capi.obj
 0002:00001254       ??_C@_0BO@CFBNHADB@IO601?1DefaultConfig?1Constant3?$AA@ 10017254     testmodel_1109_capi.obj
 0002:00001274       ??_C@_0BO@DMAGEBHA@IO601?1DefaultConfig?1Constant2?$AA@ 10017274     testmodel_1109_capi.obj
 0002:00001294       ??_C@_0BO@BHCLBCLD@IO601?1DefaultConfig?1Constant1?$AA@ 10017294     testmodel_1109_capi.obj
 0002:000012b4       ??_C@_0BK@EACJAMNO@IO601?1CANSend?1Write?5?$CIv3?$CJ1?$AA@ 100172b4     testmodel_1109_capi.obj
 0002:000012d0       ??_C@_0BJ@KHNJLINA@IO601?1CANSend?1Write?5?$CIv3?$CJ?$AA@ 100172d0     testmodel_1109_capi.obj
 0002:000012ec       ??_C@_0BH@IOBDCJHG@IO601?1CANSend?1SendStop?$AA@ 100172ec     testmodel_1109_capi.obj
 0002:00001304       ??_C@_05LPIJGKJ@Value?$AA@ 10017304     testmodel_1109_capi.obj
 0002:0000130c       ??_C@_0BC@EDCEHLKH@IO601?1CANSend?1Cur?$AA@ 1001730c     testmodel_1109_capi.obj
 0002:00001320       ??_C@_05CLADCAAM@After?$AA@ 10017320     testmodel_1109_capi.obj
 0002:00001328       ??_C@_06NDPGJMFM@Before?$AA@ 10017328     testmodel_1109_capi.obj
 0002:00001330       ??_C@_04OKOFBOPB@Time?$AA@ 10017330     testmodel_1109_capi.obj
 0002:00001338       ??_C@_03PGECKHFE@P11?$AA@  10017338     testmodel_1109_capi.obj
 0002:0000133c       ??_C@_03OPFJJGBF@P10?$AA@  1001733c     testmodel_1109_capi.obj
 0002:00001340       ??_C@_02GCIGIFOH@P9?$AA@   10017340     testmodel_1109_capi.obj
 0002:00001344       ??_C@_02HLJNLEKG@P8?$AA@   10017344     testmodel_1109_capi.obj
 0002:00001348       ??_C@_0BB@PGJCMMJJ@IO601?1Setup?5?$CIv3?$CJ?$AA@ 10017348     testmodel_1109_capi.obj
 0002:0000135c       ??_C@_02PMAFKIGJ@P7?$AA@   1001735c     testmodel_1109_capi.obj
 0002:00001360       ??_C@_02OFBOJJCI@P6?$AA@   10017360     testmodel_1109_capi.obj
 0002:00001364       ??_C@_02MODDMKOL@P5?$AA@   10017364     testmodel_1109_capi.obj
 0002:00001368       ??_C@_02NHCIPLKK@P4?$AA@   10017368     testmodel_1109_capi.obj
 0002:0000136c       ??_C@_02JIGJGNGN@P3?$AA@   1001736c     testmodel_1109_capi.obj
 0002:00001370       ??_C@_02IBHCFMCM@P2?$AA@   10017370     testmodel_1109_capi.obj
 0002:00001374       ??_C@_02KKFPAPOP@P1?$AA@   10017374     testmodel_1109_capi.obj
 0002:00001378       ??_C@_0BA@KCDIBHOF@IO601?1Read?5?$CIv3?$CJ?$AA@ 10017378     testmodel_1109_capi.obj
 0002:00001388       ??_C@_08OOPKMNBD@HitValue?$AA@ 10017388     testmodel_1109_capi.obj
 0002:00001394       ??_C@_0N@LIAJDDBE@InitialCount?$AA@ 10017394     testmodel_1109_capi.obj
 0002:000013a4       ??_C@_0L@JNLMCMDB@PhaseDelay?$AA@ 100173a4     testmodel_1109_capi.obj
 0002:000013b0       ??_C@_0L@HCJBDGGO@PulseWidth?$AA@ 100173b0     testmodel_1109_capi.obj
 0002:000013bc       ??_C@_06JOFJHOEH@Period?$AA@ 100173bc     testmodel_1109_capi.obj
 0002:000013c4       ??_C@_09IHLJOMI@Amplitude?$AA@ 100173c4     testmodel_1109_capi.obj
 0002:000013d0       ??_C@_0BB@CFEOEMDC@InitialCondition?$AA@ 100173d0     testmodel_1109_capi.obj
 0002:000013e4       ??_C@_06CFNEEADJ@U?$CIk?91?$CJ?$AA@ 100173e4     testmodel_1109_capi.obj
 0002:000013f0       ??_C@_0EO@IDOHIOEO@IO601?1ReadQueueSS?1For?5Iterator?5S@ 100173f0     testmodel_1109_capi.obj
 0002:00001440       ??_C@_0FL@LIOEFJMO@IO601?1ReadQueueSS?1For?5Iterator?5S@ 10017440     testmodel_1109_capi.obj
 0002:0000149c       ??_C@_0DM@GJGDKPJH@IO601?1ReadQueueSS?1For?5Iterator?5S@ 1001749c     testmodel_1109_capi.obj
 0002:000014d8       ??_C@_0EA@OMHPAAMO@IO601?1ReadQueueSS?1For?5Iterator?5S@ 100174d8     testmodel_1109_capi.obj
 0002:00001518       ??_C@_0EA@KDDOJGAJ@IO601?1ReadQueueSS?1For?5Iterator?5S@ 10017518     testmodel_1109_capi.obj
 0002:00001558       ??_C@_0EA@LKCFKHEI@IO601?1ReadQueueSS?1For?5Iterator?5S@ 10017558     testmodel_1109_capi.obj
 0002:00001598       ??_C@_0EA@JBAIPEIL@IO601?1ReadQueueSS?1For?5Iterator?5S@ 10017598     testmodel_1109_capi.obj
 0002:000015d8       ??_C@_0DC@IJBCCPPK@IO601?1CANSend?1J?9K?5Flip?9Flop1?1J?9K@ 100175d8     testmodel_1109_capi.obj
 0002:0000160c       ??_C@_0DB@FBNIKHMD@IO601?1CANSend?1J?9K?5Flip?9Flop1?1J?9K@ 1001760c     testmodel_1109_capi.obj
 0002:00001640       ??_C@_0DF@BDCLDKAO@IO601?1ReadQueueSS?1For?5Iterator?5S@ 10017640     testmodel_1109_capi.obj
 0002:00001678       ??_C@_0DF@KDAALEP@IO601?1ReadQueueSS?1For?5Iterator?5S@ 10017678     testmodel_1109_capi.obj
 0002:000016b0       ??_C@_0DG@KDHBEPNH@IO601?1ReadQueueSS?1For?5Iterator?5S@ 100176b0     testmodel_1109_capi.obj
 0002:000016e8       ??_C@_0DG@DEMKODMA@IO601?1ReadQueueSS?1For?5Iterator?5S@ 100176e8     testmodel_1109_capi.obj
 0002:00001720       ??_C@_0DK@FKKFFFEK@IO601?1ReadQueueSS?1For?5Iterator?5S@ 10017720     testmodel_1109_capi.obj
 0002:0000175c       ??_C@_0CE@PMCFDNCF@IO601?1Initialize?1QuitError?1CAN?5P@ 1001775c     testmodel_1109_capi.obj
 0002:00001780       ??_C@_0CF@FFPAEFDF@IO601?1Initialize?1QuitError?1Const@ 10017780     testmodel_1109_capi.obj
 0002:000017a8       ??_C@_0CK@BLPPNFHO@IO601?1Initialize?1InitialPosition@ 100177a8     testmodel_1109_capi.obj
 0002:000017d4       ??_C@_0CK@EDGHPCNG@IO601?1Initialize?1InitialPosition@ 100177d4     testmodel_1109_capi.obj
 0002:00001800       ??_C@_0CI@KAIPLBJP@IO601?1Initialize?1GetState?$CIms?$CJ?1CA@ 10017800     testmodel_1109_capi.obj
 0002:00001828       ??_C@_0CI@FDPHFBKB@IO601?1Initialize?1GetState?$CIms?$CJ?1Co@ 10017828     testmodel_1109_capi.obj
 0002:00001850       ??_C@_0BP@BMECKJAG@IO601?1CANSend?1movVel?1CAN?5Pack2?$AA@ 10017850     testmodel_1109_capi.obj
 0002:00001870       ??_C@_0BP@DHGPPKMF@IO601?1CANSend?1movVel?1CAN?5Pack1?$AA@ 10017870     testmodel_1109_capi.obj
 0002:00001890       ??_C@_0CB@KFFMMOEI@IO601?1CANSend?1movVel?1TC?5UI32?9UI8@ 10017890     testmodel_1109_capi.obj
 0002:000018b4       ??_C@_0CJ@NJHCKNBO@IO601?1CANSend?1movVel?1MATLAB?5Func@ 100178b4     testmodel_1109_capi.obj
 0002:000018e0       ??_C@_0CJ@PCFPPONN@IO601?1CANSend?1movVel?1MATLAB?5Func@ 100178e0     testmodel_1109_capi.obj
 0002:0000190c       ??_C@_0BN@LENAFBFL@IO601?1CANSend?1STOP?1CAN?5Pack2?$AA@ 1001790c     testmodel_1109_capi.obj
 0002:0000192c       ??_C@_0CI@NIIHLLDA@IO601?1CANSend?1GetState?5?$CIonce?$CJ?1CA@ 1001792c     testmodel_1109_capi.obj
 0002:00001954       ??_C@_0BH@NNPFPPJJ@IO601?1Initialize?1Step3?$AA@ 10017954     testmodel_1109_capi.obj
 0002:0000196c       ??_C@_0BH@OPMDJNBL@IO601?1Initialize?1Step1?$AA@ 1001796c     testmodel_1109_capi.obj
 0002:00001984       ??_C@_0BG@EHFDDBHJ@IO601?1Initialize?1Step?$AA@ 10017984     testmodel_1109_capi.obj
 0002:0000199c       ??_C@_0BO@MPHOKBEO@IO601?1DefaultConfig?1CAN?5Pack1?$AA@ 1001799c     testmodel_1109_capi.obj
 0002:000019bc       ??_C@_0BN@JFOKNHAM@IO601?1DefaultConfig?1CAN?5Pack?$AA@ 100179bc     testmodel_1109_capi.obj
 0002:000019dc       ??_C@_0BN@MNHCPAKE@IO601?1DefaultConfig?1Constant?$AA@ 100179dc     testmodel_1109_capi.obj
 0002:000019fc       ??_C@_0BH@DGOEPCKB@IO601?1CANSend?1Product2?$AA@ 100179fc     testmodel_1109_capi.obj
 0002:00001a14       ??_C@_0BG@CPGPAGCK@IO601?1CANSend?1Product?$AA@ 10017a14     testmodel_1109_capi.obj
 0002:00001a2c       ??_C@_0BG@PMNEJEBH@IO601?1CANSend?1SendVel?$AA@ 10017a2c     testmodel_1109_capi.obj
 0002:00001a44       ??_C@_0BO@IAOLPOIJ@IO601?1CANSend?1MATLAB?5Function?$AA@ 10017a44     testmodel_1109_capi.obj
 0002:00001a64       ??_C@_0M@CLGOOAGC@IO601?1Step5?$AA@ 10017a64     testmodel_1109_capi.obj
 0002:00001a70       ??_C@_0M@DCHFNBCD@IO601?1Step4?$AA@ 10017a70     testmodel_1109_capi.obj
 0002:00001a7c       ??_C@_0M@EPACCFGG@IO601?1Step1?$AA@ 10017a7c     testmodel_1109_capi.obj
 0002:00001a88       ??_C@_0BD@MDHIKNKI@IO601?1Read?5?$CIv3?$CJ?1p2?$AA@ 10017a88     testmodel_1109_capi.obj
 0002:00001a9c       ??_C@_0BD@OIFFPOGL@IO601?1Read?5?$CIv3?$CJ?1p1?$AA@ 10017a9c     testmodel_1109_capi.obj
 0002:00001ab0       ??_C@_0O@ECBIDPLD@IO601?1Counter?$AA@ 10017ab0     testmodel_1109_capi.obj
 0002:00001ac0       ??_C@_0O@LELDHBHI@IO601?1Product?$AA@ 10017ac0     testmodel_1109_capi.obj
 0002:00001ad0       ??_C@_0BG@PAKNPIGK@IO601?1Pulse?5Generator?$AA@ 10017ad0     testmodel_1109_capi.obj
 0002:00001ae8       ??_C@_0BP@OIHNNGJH@IO601?1Discrete?9Time?5Integrator?$AA@ 10017ae8     testmodel_1109_capi.obj
 0002:00001b08       ??_C@_0M@CNMNLDCN@IO601?1Clock?$AA@ 10017b08     testmodel_1109_capi.obj
 0002:00002db4       _serialfifoground          10018db4     xpc_datatype_ground.obj
 0002:00002dc0       _bcmsg1553ground           10018dc0     xpc_datatype_ground.obj
 0002:00002dd0       _bcstatground              10018dd0     xpc_datatype_ground.obj
 0002:00002de8       _bmmsg1553ground           10018de8     xpc_datatype_ground.obj
 0002:00002df8       ??_C@_0P@OBNPAIIM@testmodel_1109?$AA@ 10018df8     xpctarget.obj
 0002:00002e08       _ptsetfilename             10018e08     xpctarget.obj
 0002:00002e10       _testmodel_1109_BIO        10018e10     xpctarget.obj
 0002:00003080       _testmodel_1109_LBL        10019080     xpctarget.obj
 0002:000032f0       _testmodel_1109_SID        100192f0     xpctarget.obj
 0002:00003560       _xpcMMI                    10019560     xpctarget.obj
 0002:00003580       _testmodel_1109_PT         10019580     xpctarget.obj
 0002:000037b4       _xpcparamsMMI              100197b4     xpctarget.obj
 0002:000037cc       _xmlfile                   100197cc     xpctarget.obj
 0002:000037d4       ??_C@_0L@CHBJKKFC@xpceSetVar?$AA@ 100197d4     xpctarget.obj
 0002:000037e0       __real@3fb999999999999a    100197e0     xpctarget.obj
 0002:000037e8       ??_C@_03MNEDIJEE@6?43?$AA@ 100197e8     xpctarget.obj
 0002:000037f0       ??_C@_0ED@LKHIFFLC@Wrong?5number?5of?5input?5arguments?5@ 100197f0     sg_IO601_write_s_3.obj
 0002:00003834       ??_C@_0CI@NFFNBHJA@?$CFs?5?$CIbus?5?$CFd?0?5slot?5?$CFd?$CJ?3?5board?5not?5@ 10019834     sg_IO601_write_s_3.obj
 0002:0000385c       ??_C@_0BA@PEEBPDNK@Speedgoat?5IO601?$AA@ 1001985c     sg_IO601_write_s_3.obj
 0002:00003870       __real@3fa999999999999a    10019870     sg_IO601_setup_s_3.obj
 0002:00003878       ??_C@_0CC@JOAAOKEM@?$CFs?3?5Failed?5to?5start?5CAN?5on?5port?5@ 10019878     sg_IO601_setup_s_3.obj
 0002:0000389c       ??_C@_0CJ@GOBCKFJL@?$CFs?3?5Failed?5to?5configure?5RX?5queue@ 1001989c     sg_IO601_setup_s_3.obj
 0002:000038c8       ??_C@_0CM@NKLCILNM@Failed?5to?5set?5EXT?5acceptance?5mas@ 100198c8     sg_IO601_setup_s_3.obj
 0002:000038f4       ??_C@_0CM@DBIFDANP@Failed?5to?5set?5EXT?5acceptance?5mas@ 100198f4     sg_IO601_setup_s_3.obj
 0002:00003920       ??_C@_0DA@FAJCIGJF@?$CFs?3?5Failed?5to?5set?5STD?5acceptance@ 10019920     sg_IO601_setup_s_3.obj
 0002:00003950       ??_C@_0DA@LLKFDNJG@?$CFs?3?5Failed?5to?5set?5STD?5acceptance@ 10019950     sg_IO601_setup_s_3.obj
 0002:00003980       ??_C@_0BJ@PGMEJPIO@?$CFs?3?5Failed?5to?5init?5CAN?52?$AA@ 10019980     sg_IO601_setup_s_3.obj
 0002:0000399c       ??_C@_0CC@CCDBKGEL@initialize?5Speedgoat?5IO601?5CAN?52@ 1001999c     sg_IO601_setup_s_3.obj
 0002:000039c0       ??_C@_0CC@LFCNLJIP@?$CFs?3?5Failed?5to?5start?5CAN?5on?5port?5@ 100199c0     sg_IO601_setup_s_3.obj
 0002:000039e4       ??_C@_0CJ@GMFEBLMC@?$CFs?3?5Failed?5to?5configure?5RX?5queue@ 100199e4     sg_IO601_setup_s_3.obj
 0002:00003a10       ??_C@_0CM@NIPEDFIF@Failed?5to?5set?5EXT?5acceptance?5mas@ 10019a10     sg_IO601_setup_s_3.obj
 0002:00003a3c       ??_C@_0CM@DDMDIOIG@Failed?5to?5set?5EXT?5acceptance?5mas@ 10019a3c     sg_IO601_setup_s_3.obj
 0002:00003a68       ??_C@_0DA@FCNEDIMM@?$CFs?3?5Failed?5to?5set?5STD?5acceptance@ 10019a68     sg_IO601_setup_s_3.obj
 0002:00003a98       ??_C@_0DA@LJODIDMP@?$CFs?3?5Failed?5to?5set?5STD?5acceptance@ 10019a98     sg_IO601_setup_s_3.obj
 0002:00003ac8       ??_C@_0BJ@NNOJMMEN@?$CFs?3?5Failed?5to?5init?5CAN?51?$AA@ 10019ac8     sg_IO601_setup_s_3.obj
 0002:00003ae4       ??_C@_0CC@CAHHBIBC@initialize?5Speedgoat?5IO601?5CAN?51@ 10019ae4     sg_IO601_setup_s_3.obj
 0002:00003b08       ??_C@_0BI@ODAKADLH@?$CFs?3?5wrong?5firmware?5?$CI?$CFs?$CJ?$AA@ 10019b08     sg_IO601_setup_s_3.obj
 0002:00003b20       ??_C@_04BPKHPNPF@4?418?$AA@ 10019b20     sg_IO601_setup_s_3.obj
 0002:00003b28       ??_C@_04JKHJFPGD@4?427?$AA@ 10019b28     sg_IO601_setup_s_3.obj
 0002:00003b30       ??_C@_0CE@JCCAPNGC@IO601?3?5Failed?5to?5stop?5CAN?5on?5por@ 10019b30     sg_IO601_setup_s_3.obj
 0002:00003b54       ??_C@_0CE@LJANKOKB@IO601?3?5Failed?5to?5stop?5CAN?5on?5por@ 10019b54     sg_IO601_setup_s_3.obj
 0002:00003b78       ??_C@_0CF@PNCKPEHN@sendToAsyncQueueTgtAppSvc?5not?5fo@ 10019b78     xpcruntime:xpcimports.obj
 0002:00003ba0       ??_C@_0BK@IDACEHAO@sendToAsyncQueueTgtAppSvc?$AA@ 10019ba0     xpcruntime:xpcimports.obj
 0002:00003bbc       ??_C@_0CK@NDEMAMKF@terminateToAsyncQueueTgtAppSvc?5n@ 10019bbc     xpcruntime:xpcimports.obj
 0002:00003be8       ??_C@_0BP@IJNGPPPE@terminateToAsyncQueueTgtAppSvc?$AA@ 10019be8     xpcruntime:xpcimports.obj
 0002:00003c08       ??_C@_0CG@JGOFFKEL@startToAsyncQueueTgtAppSvc?5not?5f@ 10019c08     xpcruntime:xpcimports.obj
 0002:00003c30       ??_C@_0BL@CDFCLKOL@startToAsyncQueueTgtAppSvc?$AA@ 10019c30     xpcruntime:xpcimports.obj
 0002:00003c4c       ??_C@_0BK@NEKDLJHG@getStatusFlags?5not?5found?6?$AA@ 10019c4c     xpcruntime:xpcimports.obj
 0002:00003c68       ??_C@_0P@GDLHFECE@getStatusFlags?$AA@ 10019c68     xpcruntime:xpcimports.obj
 0002:00003c78       ??_C@_0BK@NCECBKNM@getCommService?5not?5found?6?$AA@ 10019c78     xpcruntime:xpcimports.obj
 0002:00003c94       ??_C@_0P@KIKONDKK@getCommService?$AA@ 10019c94     xpcruntime:xpcimports.obj
 0002:00003ca4       ??_C@_0BM@MPLCNIIE@getMemoryService?5not?5found?6?$AA@ 10019ca4     xpcruntime:xpcimports.obj
 0002:00003cc0       ??_C@_0BB@LCMHHHFN@getMemoryService?$AA@ 10019cc0     xpcruntime:xpcimports.obj
 0002:00003cd4       ??_C@_0BI@NHJNFMKH@xpceaddEvent?5not?5found?6?$AA@ 10019cd4     xpcruntime:xpcimports.obj
 0002:00003cec       ??_C@_0N@IGGLCIGE@xpceaddEvent?$AA@ 10019cec     xpcruntime:xpcimports.obj
 0002:00003cfc       ??_C@_0BH@OINCDMLA@StreamVideo?5not?5found?6?$AA@ 10019cfc     xpcruntime:xpcimports.obj
 0002:00003d14       ??_C@_0M@MFJEGMHC@StreamVideo?$AA@ 10019d14     xpcruntime:xpcimports.obj
 0002:00003d20       ??_C@_0BM@DBJBPLEL@StopVideoDisplay?5not?5found?6?$AA@ 10019d20     xpcruntime:xpcimports.obj
 0002:00003d3c       ??_C@_0BB@JBBLMILG@StopVideoDisplay?$AA@ 10019d3c     xpcruntime:xpcimports.obj
 0002:00003d50       ??_C@_0BN@EFIEBGOO@StartVideoDisplay?5not?5found?6?$AA@ 10019d50     xpcruntime:xpcimports.obj
 0002:00003d70       ??_C@_0BC@HCMIMIDN@StartVideoDisplay?$AA@ 10019d70     xpcruntime:xpcimports.obj
 0002:00003d84       ??_C@_0BP@FMGLJAIJ@DestroyVideoDisplay?5not?5found?6?$AA@ 10019d84     xpcruntime:xpcimports.obj
 0002:00003da4       ??_C@_0BE@KJCKGPHA@DestroyVideoDisplay?$AA@ 10019da4     xpcruntime:xpcimports.obj
 0002:00003db8       ??_C@_0BO@HPPLLNFP@CreateVideoDisplay?5not?5found?6?$AA@ 10019db8     xpcruntime:xpcimports.obj
 0002:00003dd8       ??_C@_0BD@NKCBPBJJ@CreateVideoDisplay?$AA@ 10019dd8     xpcruntime:xpcimports.obj
 0002:00003dec       ??_C@_0BJ@PHJKOAFL@ConvertUImage?5not?5found?6?$AA@ 10019dec     xpcruntime:xpcimports.obj
 0002:00003e08       ??_C@_0O@MCPKDLLL@ConvertUImage?$AA@ 10019e08     xpcruntime:xpcimports.obj
 0002:00003e18       ??_C@_0BF@NKGKKADL@StopVideo?5not?5found?6?$AA@ 10019e18     xpcruntime:xpcimports.obj
 0002:00003e30       ??_C@_09FAHCLKAG@StopVideo?$AA@ 10019e30     xpcruntime:xpcimports.obj
 0002:00003e3c       ??_C@_0BL@JHGHPNBI@ReadFrameBuffer?5not?5found?6?$AA@ 10019e3c     xpcruntime:xpcimports.obj
 0002:00003e58       ??_C@_0BA@FDNPOCLN@ReadFrameBuffer?$AA@ 10019e58     xpcruntime:xpcimports.obj
 0002:00003e68       ??_C@_0BG@HDCELEBP@StartVideo?5not?5found?6?$AA@ 10019e68     xpcruntime:xpcimports.obj
 0002:00003e80       ??_C@_0L@GBAEMHMH@StartVideo?$AA@ 10019e80     xpcruntime:xpcimports.obj
 0002:00003e8c       ??_C@_0BL@DALDHKHC@GetVideoConfigs?5not?5found?6?$AA@ 10019e8c     xpcruntime:xpcimports.obj
 0002:00003ea8       ??_C@_0BA@PLPAPNAB@GetVideoConfigs?$AA@ 10019ea8     xpcruntime:xpcimports.obj
 0002:00003eb8       ??_C@_0BO@POKLDHMI@FindUsbVideoDevice?5not?5found?6?$AA@ 10019eb8     xpcruntime:xpcimports.obj
 0002:00003ed8       ??_C@_0BD@MFNDMBOF@FindUsbVideoDevice?$AA@ 10019ed8     xpcruntime:xpcimports.obj
 0002:00003eec       ??_C@_0BP@OFNCKOJH@xpceDeleteSemaphore?5not?5found?6?$AA@ 10019eec     xpcruntime:xpcimports.obj
 0002:00003f0c       ??_C@_0BE@MEBEKOIM@xpceDeleteSemaphore?$AA@ 10019f0c     xpcruntime:xpcimports.obj
 0002:00003f20       ??_C@_0BP@LBANMHJP@xpceSignalSemaphore?5not?5found?6?$AA@ 10019f20     xpcruntime:xpcimports.obj
 0002:00003f40       ??_C@_0BE@NNDIOBKE@xpceSignalSemaphore?$AA@ 10019f40     xpcruntime:xpcimports.obj
 0002:00003f54       ??_C@_0BN@NMFAADIO@xpceWaitSemaphore?5not?5found?6?$AA@ 10019f54     xpcruntime:xpcimports.obj
 0002:00003f74       ??_C@_0BC@IFNIONKJ@xpceWaitSemaphore?$AA@ 10019f74     xpcruntime:xpcimports.obj
 0002:00003f88       ??_C@_0BP@KFBAFFKJ@xpceCreateSemaphore?5not?5found?6?$AA@ 10019f88     xpcruntime:xpcimports.obj
 0002:00003fa8       ??_C@_0BE@IIGBFDHK@xpceCreateSemaphore?$AA@ 10019fa8     xpcruntime:xpcimports.obj
 0002:00003fbc       ??_C@_0BK@KGPJBJND@TBGiveSpinFast?5not?5found?6?$AA@ 10019fbc     xpcruntime:xpcimports.obj
 0002:00003fd8       ??_C@_0P@FKNAAELA@TBGiveSpinFast?$AA@ 10019fd8     xpcruntime:xpcimports.obj
 0002:00003fe8       ??_C@_0BK@NKAIBHGB@TBTakeSpinFast?5not?5found?6?$AA@ 10019fe8     xpcruntime:xpcimports.obj
 0002:00004004       ??_C@_0P@DAHDDBJG@TBTakeSpinFast?$AA@ 1001a004     xpcruntime:xpcimports.obj
 0002:00004014       ??_C@_0BI@BKCPAAG@TBDeleteSpin?5not?5found?6?$AA@ 1001a014     xpcruntime:xpcimports.obj
 0002:0000402c       ??_C@_0N@HOAJHNBD@TBDeleteSpin?$AA@ 1001a02c     xpcruntime:xpcimports.obj
 0002:0000403c       ??_C@_0BI@FHKMLKOE@TBCreateSpin?5not?5found?6?$AA@ 1001a03c     xpcruntime:xpcimports.obj
 0002:00004054       ??_C@_0N@LKKJEKKA@TBCreateSpin?$AA@ 1001a054     xpcruntime:xpcimports.obj
 0002:00004064       ??_C@_0BH@FBOPECBI@xpcBusyWait?5not?5found?6?$AA@ 1001a064     xpcruntime:xpcimports.obj
 0002:0000407c       ??_C@_0M@ICBLMODA@xpcBusyWait?$AA@ 1001a07c     xpcruntime:xpcimports.obj
 0002:00004088       ??_C@_0BN@OEOAHCIO@xpcGetElapsedTime?5not?5found?6?$AA@ 1001a088     xpcruntime:xpcimports.obj
 0002:000040a8       ??_C@_0BC@JGKNLICL@xpcGetElapsedTime?$AA@ 1001a0a8     xpcruntime:xpcimports.obj
 0002:000040bc       ??_C@_0CB@PKJEBPOG@xpcFreePhysicalMemory?5not?5found?6@ 1001a0bc     xpcruntime:xpcimports.obj
 0002:000040e0       ??_C@_0BG@CBNPGAEL@xpcFreePhysicalMemory?$AA@ 1001a0e0     xpcruntime:xpcimports.obj
 0002:000040f8       ??_C@_0CC@MOJPNHKL@xpcAllocPhysicalMemory?5not?5found@ 1001a0f8     xpcruntime:xpcimports.obj
 0002:0000411c       ??_C@_0BH@KJJLCAOJ@xpcAllocPhysicalMemory?$AA@ 1001a11c     xpcruntime:xpcimports.obj
 0002:00004134       ??_C@_0BK@DHEMLBIM@xpcIsModelInit?5not?5found?6?$AA@ 1001a134     xpcruntime:xpcimports.obj
 0002:00004150       ??_C@_0P@OKGNGAGH@xpcIsModelInit?$AA@ 1001a150     xpcruntime:xpcimports.obj
 0002:00004160       ??_C@_0BI@FHPFHECO@xpceUDPClose?5not?5found?6?$AA@ 1001a160     xpcruntime:xpcimports.obj
 0002:00004178       ??_C@_0N@IEHPMFME@xpceUDPClose?$AA@ 1001a178     xpcruntime:xpcimports.obj
 0002:00004188       ??_C@_0BK@OPJMLDLH@xpceUDPReceive?5not?5found?6?$AA@ 1001a188     xpcruntime:xpcimports.obj
 0002:000041a4       ??_C@_0P@PLFDECIN@xpceUDPReceive?$AA@ 1001a1a4     xpcruntime:xpcimports.obj
 0002:000041b4       ??_C@_0BH@NOIKLPAB@xpceUDPSend?5not?5found?6?$AA@ 1001a1b4     xpcruntime:xpcimports.obj
 0002:000041cc       ??_C@_0M@OFPFLJGN@xpceUDPSend?$AA@ 1001a1cc     xpcruntime:xpcimports.obj
 0002:000041d8       ??_C@_0BO@IFKJBHKC@xpceUDPOpenReceive?5not?5found?6?$AA@ 1001a1d8     xpcruntime:xpcimports.obj
 0002:000041f8       ??_C@_0BD@BCELJJJL@xpceUDPOpenReceive?$AA@ 1001a1f8     xpcruntime:xpcimports.obj
 0002:0000420c       ??_C@_0BL@HNLPFEK@xpceUDPOpenSend?5not?5found?6?$AA@ 1001a20c     xpcruntime:xpcimports.obj
 0002:00004228       ??_C@_0BA@FHMIOKFL@xpceUDPOpenSend?$AA@ 1001a228     xpcruntime:xpcimports.obj
 0002:00004238       ??_C@_0BG@HNOFBOB@xpceGetTET?5not?5found?6?$AA@ 1001a238     xpcruntime:xpcimports.obj
 0002:00004250       ??_C@_0L@OCBLLHBM@xpceGetTET?$AA@ 1001a250     xpcruntime:xpcimports.obj
 0002:0000425c       ??_C@_0BM@OABDBKAO@xpceGetParamDims?5not?5found?6?$AA@ 1001a25c     xpcruntime:xpcimports.obj
 0002:00004278       ??_C@_0BB@CEIJLFCD@xpceGetParamDims?$AA@ 1001a278     xpcruntime:xpcimports.obj
 0002:0000428c       ??_C@_0BM@POHNKBC@xpceGetParameter?5not?5found?6?$AA@ 1001a28c     xpcruntime:xpcimports.obj
 0002:000042a8       ??_C@_0BB@GNFDFMCM@xpceGetParameter?$AA@ 1001a2a8     xpcruntime:xpcimports.obj
 0002:000042bc       ??_C@_0BM@BJIKDLHA@xpceSetParameter?5not?5found?6?$AA@ 1001a2bc     xpcruntime:xpcimports.obj
 0002:000042d8       ??_C@_0BB@BJONJAGA@xpceSetParameter?$AA@ 1001a2d8     xpcruntime:xpcimports.obj
 0002:000042ec       ??_C@_0BO@GCBDJHMB@xpceGetSignalValue?5not?5found?6?$AA@ 1001a2ec     xpcruntime:xpcimports.obj
 0002:0000430c       ??_C@_0BD@PCKOKHO@xpceGetSignalValue?$AA@ 1001a30c     xpcruntime:xpcimports.obj
 0002:00004320       ??_C@_0BK@KNBNFIKH@rl32eSendBlock?5not?5found?6?$AA@ 1001a320     xpcruntime:xpcimports.obj
 0002:0000433c       ??_C@_0P@MDMKIJF@rl32eSendBlock?$AA@ 1001a33c     xpcruntime:xpcimports.obj
 0002:0000434c       ??_C@_0BL@PLIDKKGI@rl32eLineStatus?5not?5found?6?$AA@ 1001a34c     xpcruntime:xpcimports.obj
 0002:00004368       ??_C@_0BA@CFIJOJPK@rl32eLineStatus?$AA@ 1001a368     xpcruntime:xpcimports.obj
 0002:00004378       ??_C@_0CD@LNMOFLAH@rl32eReceiveBufferCount?5not?5foun@ 1001a378     xpcruntime:xpcimports.obj
 0002:0000439c       ??_C@_0BI@PKEJFHMJ@rl32eReceiveBufferCount?$AA@ 1001a39c     xpcruntime:xpcimports.obj
 0002:000043b4       ??_C@_0BM@HGAIOAND@rl32eReceiveChar?5not?5found?6?$AA@ 1001a3b4     xpcruntime:xpcimports.obj
 0002:000043d0       ??_C@_0BB@OMFKCOEK@rl32eReceiveChar?$AA@ 1001a3d0     xpcruntime:xpcimports.obj
 0002:000043e4       ??_C@_0BJ@JCJKDACJ@rl32eSendChar?5not?5found?6?$AA@ 1001a3e4     xpcruntime:xpcimports.obj
 0002:00004400       ??_C@_0O@LLJGKFOG@rl32eSendChar?$AA@ 1001a400     xpcruntime:xpcimports.obj
 0002:00004410       ??_C@_0BN@KCOFELEM@rl32eCloseCOMPort?5not?5found?6?$AA@ 1001a410     xpcruntime:xpcimports.obj
 0002:00004430       ??_C@_0BC@CHEEFCP@rl32eCloseCOMPort?$AA@ 1001a430     xpcruntime:xpcimports.obj
 0002:00004444       ??_C@_0BM@DDJGKAHB@rl32eInitCOMPort?5not?5found?6?$AA@ 1001a444     xpcruntime:xpcimports.obj
 0002:00004460       ??_C@_0BB@FCHHFAAH@rl32eInitCOMPort?$AA@ 1001a460     xpcruntime:xpcimports.obj
 0002:00004474       ??_C@_0CC@CDNDNJBJ@xpceAssignPCIInterrupt?5not?5found@ 1001a474     xpcruntime:xpcimports.obj
 0002:00004498       ??_C@_0BH@OKBOPNFG@xpceAssignPCIInterrupt?$AA@ 1001a498     xpcruntime:xpcimports.obj
 0002:000044b0       ??_C@_0CB@BBKIPMLA@rl32eGetPCIInfoAtSlot?5not?5found?6@ 1001a4b0     xpcruntime:xpcimports.obj
 0002:000044d4       ??_C@_0BG@NJPFKFDP@rl32eGetPCIInfoAtSlot?$AA@ 1001a4d4     xpcruntime:xpcimports.obj
 0002:000044ec       ??_C@_0BL@IGOMLDCK@rl32eGetPCIInfo?5not?5found?6?$AA@ 1001a4ec     xpcruntime:xpcimports.obj
 0002:00004508       ??_C@_0BA@BGPAADB@rl32eGetPCIInfo?$AA@ 1001a508     xpcruntime:xpcimports.obj
 0002:00004518       ??_C@_0BM@IFDMAGLO@rl32eShowPCIInfo?5not?5found?6?$AA@ 1001a518     xpcruntime:xpcimports.obj
 0002:00004534       ??_C@_0BB@KBCOJPFB@rl32eShowPCIInfo?$AA@ 1001a534     xpcruntime:xpcimports.obj
 0002:00004548       ??_C@_0BL@DDFFLNHI@rl32eShowPCIDev?5not?5found?6?$AA@ 1001a548     xpcruntime:xpcimports.obj
 0002:00004564       ??_C@_0BA@JGPMHGAF@rl32eShowPCIDev?$AA@ 1001a564     xpcruntime:xpcimports.obj
 0002:00004574       ??_C@_0CC@KAAAGPI@xpcReserveMemoryRegion?5not?5found@ 1001a574     xpcruntime:xpcimports.obj
 0002:00004598       ??_C@_0BH@EHOLELHH@xpcReserveMemoryRegion?$AA@ 1001a598     xpcruntime:xpcimports.obj
 0002:000045b0       ??_C@_0BF@GJKLPNHB@xpcOutpDW?5not?5found?6?$AA@ 1001a5b0     xpcruntime:xpcimports.obj
 0002:000045c8       ??_C@_09FLIEKHJG@xpcOutpDW?$AA@ 1001a5c8     xpcruntime:xpcimports.obj
 0002:000045d4       ??_C@_0BE@NLIFDBGM@xpcOutpW?5not?5found?6?$AA@ 1001a5d4     xpcruntime:xpcimports.obj
 0002:000045e8       ??_C@_08MOOJAOHK@xpcOutpW?$AA@ 1001a5e8     xpcruntime:xpcimports.obj
 0002:000045f4       ??_C@_0BE@HCKNCEKF@xpcOutpB?5not?5found?6?$AA@ 1001a5f4     xpcruntime:xpcimports.obj
 0002:00004608       ??_C@_08PJFMOIGO@xpcOutpB?$AA@ 1001a608     xpcruntime:xpcimports.obj
 0002:00004614       ??_C@_0BE@PIELDNIL@xpcInpDW?5not?5found?6?$AA@ 1001a614     xpcruntime:xpcimports.obj
 0002:00004628       ??_C@_08KDIAJBOP@xpcInpDW?$AA@ 1001a628     xpcruntime:xpcimports.obj
 0002:00004634       ??_C@_0BD@FPCJFMCC@xpcInpW?5not?5found?6?$AA@ 1001a634     xpcruntime:xpcimports.obj
 0002:00004648       ??_C@_07KIHBBOKH@xpcInpW?$AA@ 1001a648     xpcruntime:xpcimports.obj
 0002:00004650       ??_C@_0BD@PGABEJOL@xpcInpB?5not?5found?6?$AA@ 1001a650     xpcruntime:xpcimports.obj
 0002:00004664       ??_C@_07JPMEPILD@xpcInpB?$AA@ 1001a664     xpcruntime:xpcimports.obj
 0002:0000466c       ??_C@_0BK@HONODOKP@xpceFTSubtract?5not?5found?6?$AA@ 1001a66c     xpcruntime:xpcimports.obj
 0002:00004688       ??_C@_0P@KEODBLHO@xpceFTSubtract?$AA@ 1001a688     xpcruntime:xpcimports.obj
 0002:00004698       ??_C@_0BF@FJLEIILA@xpceFTAdd?5not?5found?6?$AA@ 1001a698     xpcruntime:xpcimports.obj
 0002:000046b0       ??_C@_09PHNHCHFH@xpceFTAdd?$AA@ 1001a6b0     xpcruntime:xpcimports.obj
 0002:000046bc       ??_C@_0BK@NMABIODN@xpceFTReadTime?5not?5found?6?$AA@ 1001a6bc     xpcruntime:xpcimports.obj
 0002:000046d8       ??_C@_0P@CPGPNKEB@xpceFTReadTime?$AA@ 1001a6d8     xpcruntime:xpcimports.obj
 0002:000046e8       ??_C@_0BN@DCAIKFFD@xpceDeRegisterISR?5not?5found?6?$AA@ 1001a6e8     xpcruntime:xpcimports.obj
 0002:00004708       ??_C@_0BC@NLBADGKF@xpceDeRegisterISR?$AA@ 1001a708     xpcruntime:xpcimports.obj
 0002:0000471c       ??_C@_0BL@NNDLOEJE@xpceRegisterISR?5not?5found?6?$AA@ 1001a71c     xpcruntime:xpcimports.obj
 0002:00004738       ??_C@_0BA@IJINKAHF@xpceRegisterISR?$AA@ 1001a738     xpcruntime:xpcimports.obj
 0002:00004748       ??_C@_0BK@NJCKNFPN@xpceScopeAcqOK?5not?5found?6?$AA@ 1001a748     xpcruntime:xpcimports.obj
 0002:00004764       ??_C@_0P@IEIIADJB@xpceScopeAcqOK?$AA@ 1001a764     xpcruntime:xpcimports.obj
 0002:00004774       ??_C@_0CD@LLBEFFBO@rl32eRestartAcquisition?5not?5foun@ 1001a774     xpcruntime:xpcimports.obj
 0002:00004798       ??_C@_0BI@JAPOIDNG@rl32eRestartAcquisition?$AA@ 1001a798     xpcruntime:xpcimports.obj
 0002:000047b0       ??_C@_0CE@JLGHCFHI@rl32eSetTargetScopeSigFt?5not?5fou@ 1001a7b0     xpcruntime:xpcimports.obj
 0002:000047d4       ??_C@_0BJ@LIDLNDHC@rl32eSetTargetScopeSigFt?$AA@ 1001a7d4     xpcruntime:xpcimports.obj
 0002:000047f0       ??_C@_0BP@JCHFMKPJ@rl32eSetTargetScope?5not?5found?6?$AA@ 1001a7f0     xpcruntime:xpcimports.obj
 0002:00004810       ??_C@_0BE@DLACEEJM@rl32eSetTargetScope?$AA@ 1001a810     xpcruntime:xpcimports.obj
 0002:00004824       ??_C@_0BK@JODJPNNH@xpceFSScopeSet?5not?5found?6?$AA@ 1001a824     xpcruntime:xpcimports.obj
 0002:00004840       ??_C@_0P@IKMCBMHH@xpceFSScopeSet?$AA@ 1001a840     xpcruntime:xpcimports.obj
 0002:00004850       ??_C@_0BJ@JCLHHIN@rl32eSetScope?5not?5found?6?$AA@ 1001a850     xpcruntime:xpcimports.obj
 0002:0000486c       ??_C@_0O@CFDGALBP@rl32eSetScope?$AA@ 1001a86c     xpcruntime:xpcimports.obj
 0002:0000487c       ??_C@_0BM@LGAMBAID@rl32eGetSignalNo?5not?5found?6?$AA@ 1001a87c     xpcruntime:xpcimports.obj
 0002:00004898       ??_C@_0BB@LDMIHGCE@rl32eGetSignalNo?$AA@ 1001a898     xpcruntime:xpcimports.obj
 0002:000048ac       ??_C@_0BK@GMJAJBAI@rl32eAddSignal?5not?5found?6?$AA@ 1001a8ac     xpcruntime:xpcimports.obj
 0002:000048c8       ??_C@_0P@CKNKILDP@rl32eAddSignal?$AA@ 1001a8c8     xpcruntime:xpcimports.obj
 0002:000048d8       ??_C@_0BJ@CDNOENKA@rl32eDefScope?5not?5found?6?$AA@ 1001a8d8     xpcruntime:xpcimports.obj
 0002:000048f4       ??_C@_0O@BNNGKJEA@rl32eDefScope?$AA@ 1001a8f4     xpcruntime:xpcimports.obj
 0002:00004904       ??_C@_0BM@FJBFEGFG@rl32eScopeExists?5not?5found?6?$AA@ 1001a904     xpcruntime:xpcimports.obj
 0002:00004920       ??_C@_0BB@BNNCEDPC@rl32eScopeExists?$AA@ 1001a920     xpcruntime:xpcimports.obj
 0002:00004934       __FPinit                   1001a934     LIBCMT:_fpinit_.obj
 0002:000049e0       __OP_FMODjmptab            1001a9e0     LIBCMT:_87fmod_.obj
 0002:00004a30       ??_C@_0P@MIGLKIOC@CorExitProcess?$AA@ 1001aa30     LIBCMT:crt0dat.obj
 0002:00004a40       ??_C@_1BI@BGOHAHKC@?$AAm?$AAs?$AAc?$AAo?$AAr?$AAe?$AAe?$AA?4?$AAd?$AAl?$AAl?$AA?$AA@ 1001aa40     LIBCMT:crt0dat.obj
 0002:00004a58       ??_C@_15IABLJNFO@?$AA?6?$AA?6?$AA?$AA@ 1001aa58     LIBCMT:wassert.obj
 0002:00004a60       ??_C@_13LBAGMAIH@?$AA?6?$AA?$AA@ 1001aa60     LIBCMT:wassert.obj
 0002:00004a64       ??_C@_17LGKOMLJ@?$AA?4?$AA?4?$AA?4?$AA?$AA@ 1001aa64     LIBCMT:wassert.obj
 0002:00004a70       ??_C@_1EK@MBDPDCGA@?$AAM?$AAi?$AAc?$AAr?$AAo?$AAs?$AAo?$AAf?$AAt?$AA?5?$AAV?$AAi?$AAs?$AAu?$AAa?$AAl?$AA?5?$AAC?$AA?$CL?$AA?$CL?$AA?5?$AAR?$AAu?$AAn?$AAt?$AAi?$AAm?$AAe?$AA?5?$AAL?$AAi?$AAb@ 1001aa70     LIBCMT:wassert.obj
 0002:00004abc       ??_C@_1CO@EAEJAADC@?$AA?$DM?$AAp?$AAr?$AAo?$AAg?$AAr?$AAa?$AAm?$AA?5?$AAn?$AAa?$AAm?$AAe?$AA?5?$AAu?$AAn?$AAk?$AAn?$AAo?$AAw?$AAn?$AA?$DO?$AA?$AA@ 1001aabc     LIBCMT:wassert.obj
 0002:00004aec       __pRawDllMain              1001aaec     LIBCMT:dllcrt0.obj
 0002:00004aec       __pDefaultRawDllMain       1001aaec     LIBCMT:dllcrt0.obj
 0002:00004af0       ??_C@_1BO@BKOMIGKJ@?$AAr?$AAu?$AAn?$AAt?$AAi?$AAm?$AAe?$AA?5?$AAe?$AAr?$AAr?$AAo?$AAr?$AA?5?$AA?$AA@ 1001aaf0     LIBCMT:crt0msg.obj
 0002:00004b10       ??_C@_15JNBOKNOG@?$AA?$AN?$AA?6?$AA?$AA@ 1001ab10     LIBCMT:crt0msg.obj
 0002:00004b18       ??_C@_1BM@JBBEPPHI@?$AAT?$AAL?$AAO?$AAS?$AAS?$AA?5?$AAe?$AAr?$AAr?$AAo?$AAr?$AA?$AN?$AA?6?$AA?$AA@ 1001ab18     LIBCMT:crt0msg.obj
 0002:00004b34       ??_C@_1BK@KMOMNAAI@?$AAS?$AAI?$AAN?$AAG?$AA?5?$AAe?$AAr?$AAr?$AAo?$AAr?$AA?$AN?$AA?6?$AA?$AA@ 1001ab34     LIBCMT:crt0msg.obj
 0002:00004b50       ??_C@_1BO@BFCDCGC@?$AAD?$AAO?$AAM?$AAA?$AAI?$AAN?$AA?5?$AAe?$AAr?$AAr?$AAo?$AAr?$AA?$AN?$AA?6?$AA?$AA@ 1001ab50     LIBCMT:crt0msg.obj
 0002:00004b70       ??_C@_1BOO@KGEDBGAJ@?$AAR?$AA6?$AA0?$AA3?$AA3?$AA?$AN?$AA?6?$AA?9?$AA?5?$AAA?$AAt?$AAt?$AAe?$AAm?$AAp?$AAt?$AA?5?$AAt?$AAo?$AA?5?$AAu?$AAs?$AAe?$AA?5?$AAM?$AAS?$AAI?$AAL?$AA?5?$AAc?$AAo?$AAd@ 1001ab70     LIBCMT:crt0msg.obj
 0002:00004d60       ??_C@_1GG@GOPILAJP@?$AAR?$AA6?$AA0?$AA3?$AA2?$AA?$AN?$AA?6?$AA?9?$AA?5?$AAn?$AAo?$AAt?$AA?5?$AAe?$AAn?$AAo?$AAu?$AAg?$AAh?$AA?5?$AAs?$AAp?$AAa?$AAc?$AAe?$AA?5?$AAf?$AAo?$AAr?$AA?5?$AAl?$AAo@ 1001ad60     LIBCMT:crt0msg.obj
 0002:00004dc8       ??_C@_1MG@ENCOOIDF@?$AAR?$AA6?$AA0?$AA3?$AA1?$AA?$AN?$AA?6?$AA?9?$AA?5?$AAA?$AAt?$AAt?$AAe?$AAm?$AAp?$AAt?$AA?5?$AAt?$AAo?$AA?5?$AAi?$AAn?$AAi?$AAt?$AAi?$AAa?$AAl?$AAi?$AAz?$AAe?$AA?5?$AAt@ 1001adc8     LIBCMT:crt0msg.obj
 0002:00004e90       ??_C@_1DO@BMFCDCD@?$AAR?$AA6?$AA0?$AA3?$AA0?$AA?$AN?$AA?6?$AA?9?$AA?5?$AAC?$AAR?$AAT?$AA?5?$AAn?$AAo?$AAt?$AA?5?$AAi?$AAn?$AAi?$AAt?$AAi?$AAa?$AAl?$AAi?$AAz?$AAe?$AAd?$AA?$AN?$AA?6?$AA?$AA@ 1001ae90     LIBCMT:crt0msg.obj
 0002:00004ed0       ??_C@_1EK@HHFLMAOL@?$AAR?$AA6?$AA0?$AA2?$AA8?$AA?$AN?$AA?6?$AA?9?$AA?5?$AAu?$AAn?$AAa?$AAb?$AAl?$AAe?$AA?5?$AAt?$AAo?$AA?5?$AAi?$AAn?$AAi?$AAt?$AAi?$AAa?$AAl?$AAi?$AAz?$AAe?$AA?5?$AAh?$AAe@ 1001aed0     LIBCMT:crt0msg.obj
 0002:00004f20       ??_C@_1GK@MFGOKLAG@?$AAR?$AA6?$AA0?$AA2?$AA7?$AA?$AN?$AA?6?$AA?9?$AA?5?$AAn?$AAo?$AAt?$AA?5?$AAe?$AAn?$AAo?$AAu?$AAg?$AAh?$AA?5?$AAs?$AAp?$AAa?$AAc?$AAe?$AA?5?$AAf?$AAo?$AAr?$AA?5?$AAl?$AAo@ 1001af20     LIBCMT:crt0msg.obj
 0002:00004f90       ??_C@_1GK@MCAAGJMO@?$AAR?$AA6?$AA0?$AA2?$AA6?$AA?$AN?$AA?6?$AA?9?$AA?5?$AAn?$AAo?$AAt?$AA?5?$AAe?$AAn?$AAo?$AAu?$AAg?$AAh?$AA?5?$AAs?$AAp?$AAa?$AAc?$AAe?$AA?5?$AAf?$AAo?$AAr?$AA?5?$AAs?$AAt@ 1001af90     LIBCMT:crt0msg.obj
 0002:00005000       ??_C@_1EM@MAADIHMB@?$AAR?$AA6?$AA0?$AA2?$AA5?$AA?$AN?$AA?6?$AA?9?$AA?5?$AAp?$AAu?$AAr?$AAe?$AA?5?$AAv?$AAi?$AAr?$AAt?$AAu?$AAa?$AAl?$AA?5?$AAf?$AAu?$AAn?$AAc?$AAt?$AAi?$AAo?$AAn?$AA?5?$AAc@ 1001b000     LIBCMT:crt0msg.obj
 0002:00005050       ??_C@_1GK@FHCKBEFA@?$AAR?$AA6?$AA0?$AA2?$AA4?$AA?$AN?$AA?6?$AA?9?$AA?5?$AAn?$AAo?$AAt?$AA?5?$AAe?$AAn?$AAo?$AAu?$AAg?$AAh?$AA?5?$AAs?$AAp?$AAa?$AAc?$AAe?$AA?5?$AAf?$AAo?$AAr?$AA?5?$AA_?$AAo@ 1001b050     LIBCMT:crt0msg.obj
 0002:000050c0       ??_C@_1FC@ECHBIFBC@?$AAR?$AA6?$AA0?$AA1?$AA9?$AA?$AN?$AA?6?$AA?9?$AA?5?$AAu?$AAn?$AAa?$AAb?$AAl?$AAe?$AA?5?$AAt?$AAo?$AA?5?$AAo?$AAp?$AAe?$AAn?$AA?5?$AAc?$AAo?$AAn?$AAs?$AAo?$AAl?$AAe?$AA?5@ 1001b0c0     LIBCMT:crt0msg.obj
 0002:00005118       ??_C@_1EC@JIBHAOPH@?$AAR?$AA6?$AA0?$AA1?$AA8?$AA?$AN?$AA?6?$AA?9?$AA?5?$AAu?$AAn?$AAe?$AAx?$AAp?$AAe?$AAc?$AAt?$AAe?$AAd?$AA?5?$AAh?$AAe?$AAa?$AAp?$AA?5?$AAe?$AAr?$AAr?$AAo?$AAr?$AA?$AN?$AA?6@ 1001b118     LIBCMT:crt0msg.obj
 0002:00005160       ??_C@_1FK@BEOGODMC@?$AAR?$AA6?$AA0?$AA1?$AA7?$AA?$AN?$AA?6?$AA?9?$AA?5?$AAu?$AAn?$AAe?$AAx?$AAp?$AAe?$AAc?$AAt?$AAe?$AAd?$AA?5?$AAm?$AAu?$AAl?$AAt?$AAi?$AAt?$AAh?$AAr?$AAe?$AAa?$AAd?$AA?5@ 1001b160     LIBCMT:crt0msg.obj
 0002:000051c0       ??_C@_1FI@LOGNIKDM@?$AAR?$AA6?$AA0?$AA1?$AA6?$AA?$AN?$AA?6?$AA?9?$AA?5?$AAn?$AAo?$AAt?$AA?5?$AAe?$AAn?$AAo?$AAu?$AAg?$AAh?$AA?5?$AAs?$AAp?$AAa?$AAc?$AAe?$AA?5?$AAf?$AAo?$AAr?$AA?5?$AAt?$AAh@ 1001b1c0     LIBCMT:crt0msg.obj
 0002:00005218       ??_C@_1EG@BEHAGFJD@?$AAR?$AA6?$AA0?$AA1?$AA0?$AA?$AN?$AA?6?$AA?9?$AA?5?$AAa?$AAb?$AAo?$AAr?$AAt?$AA?$CI?$AA?$CJ?$AA?5?$AAh?$AAa?$AAs?$AA?5?$AAb?$AAe?$AAe?$AAn?$AA?5?$AAc?$AAa?$AAl?$AAl?$AAe?$AAd@ 1001b218     LIBCMT:crt0msg.obj
 0002:00005260       ??_C@_1FI@HONFMGBI@?$AAR?$AA6?$AA0?$AA0?$AA9?$AA?$AN?$AA?6?$AA?9?$AA?5?$AAn?$AAo?$AAt?$AA?5?$AAe?$AAn?$AAo?$AAu?$AAg?$AAh?$AA?5?$AAs?$AAp?$AAa?$AAc?$AAe?$AA?5?$AAf?$AAo?$AAr?$AA?5?$AAe?$AAn@ 1001b260     LIBCMT:crt0msg.obj
 0002:000052b8       ??_C@_1FE@LLNEDJMD@?$AAR?$AA6?$AA0?$AA0?$AA8?$AA?$AN?$AA?6?$AA?9?$AA?5?$AAn?$AAo?$AAt?$AA?5?$AAe?$AAn?$AAo?$AAu?$AAg?$AAh?$AA?5?$AAs?$AAp?$AAa?$AAc?$AAe?$AA?5?$AAf?$AAo?$AAr?$AA?5?$AAa?$AAr@ 1001b2b8     LIBCMT:crt0msg.obj
 0002:00005310       ??_C@_1FK@PGACCAFB@?$AAR?$AA6?$AA0?$AA0?$AA2?$AA?$AN?$AA?6?$AA?9?$AA?5?$AAf?$AAl?$AAo?$AAa?$AAt?$AAi?$AAn?$AAg?$AA?5?$AAp?$AAo?$AAi?$AAn?$AAt?$AA?5?$AAs?$AAu?$AAp?$AAp?$AAo?$AAr?$AAt?$AA?5@ 1001b310     LIBCMT:crt0msg.obj
 0002:00005420       ??_C@_1DE@JNGNBFGO@?$AAR?$AAu?$AAn?$AAt?$AAi?$AAm?$AAe?$AA?5?$AAE?$AAr?$AAr?$AAo?$AAr?$AA?$CB?$AA?6?$AA?6?$AAP?$AAr?$AAo?$AAg?$AAr?$AAa?$AAm?$AA?3?$AA?5?$AA?$AA@ 1001b420     LIBCMT:crt0msg.obj
 0002:00005454       ??_C@_05KLBDPFGC@e?$CL000?$AA@ 1001b454     LIBCMT:cvt.obj
 0002:000054c8       ??_C@_03IIINPABG@tan?$AA@  1001b4c8     LIBCMT:_libm_error_.obj
 0002:000054cc       ??_C@_03LALBNOCG@cos?$AA@  1001b4cc     LIBCMT:_libm_error_.obj
 0002:000054d0       ??_C@_03BLEJJJBH@sin?$AA@  1001b4d0     LIBCMT:_libm_error_.obj
 0002:000054d4       ??_C@_04EHEDPDJG@modf?$AA@ 1001b4d4     LIBCMT:_libm_error_.obj
 0002:000054dc       ??_C@_05PBJFFIGL@floor?$AA@ 1001b4dc     LIBCMT:_libm_error_.obj
 0002:000054e4       ??_C@_04GFPJNGEK@ceil?$AA@ 1001b4e4     LIBCMT:_libm_error_.obj
 0002:000054ec       ??_C@_04MLLJIGOK@atan?$AA@ 1001b4ec     LIBCMT:_libm_error_.obj
 0002:000054f4       ??_C@_05EOHGHCHD@exp10?$AA@ 1001b4f4     LIBCMT:_libm_error_.obj
 0002:000054fc       ??_C@_04PDIFKINK@acos?$AA@ 1001b4fc     LIBCMT:_libm_error_.obj
 0002:00005504       ??_C@_04FIHNOPOL@asin?$AA@ 1001b504     LIBCMT:_libm_error_.obj
 0002:0000550c       ??_C@_03MGHMBJCF@log?$AA@  1001b50c     LIBCMT:_libm_error_.obj
 0002:00005510       ??_C@_05HGHHAHAP@log10?$AA@ 1001b510     LIBCMT:_libm_error_.obj
 0002:00005518       ??_C@_03KHJOGHMM@exp?$AA@  1001b518     LIBCMT:_libm_error_.obj
 0002:0000551c       ??_C@_03JGHBODFD@pow?$AA@  1001b51c     LIBCMT:_libm_error_.obj
 0002:00005dc0       __indefinite               1001bdc0     LIBCMT:_87disp_.obj
 0002:00005dca       __piby2                    1001bdca     LIBCMT:_87disp_.obj
 0002:00005df8       __DEFAULT_CW_in_mem        1001bdf8     LIBCMT:_common_.obj
 0002:00005dfa       __pi_by_2_to_61            1001bdfa     LIBCMT:_common_.obj
 0002:00005e70       ??_C@_1O@CEDCILHN@?$AA?$CI?$AAn?$AAu?$AAl?$AAl?$AA?$CJ?$AA?$AA@ 1001be70     LIBCMT:output.obj
 0002:00005e80       ??_C@_06OJHGLDPL@?$CInull?$CJ?$AA@ 1001be80     LIBCMT:output.obj
 0002:00005e88       ___lookuptable             1001be88     LIBCMT:output.obj
 0002:00005ee4       ??_C@_0L@KDOEJCKC@_nextafter?$AA@ 1001bee4     LIBCMT:_fpexcept_.obj
 0002:00005ef0       ??_C@_05JGDBENOH@_logb?$AA@ 1001bef0     LIBCMT:_fpexcept_.obj
 0002:00005ef8       ??_C@_03ONILCKOB@_yn?$AA@  1001bef8     LIBCMT:_fpexcept_.obj
 0002:00005efc       ??_C@_03NAKIGLHK@_y1?$AA@  1001befc     LIBCMT:_fpexcept_.obj
 0002:00005f00       ??_C@_03MJLDFKDL@_y0?$AA@  1001bf00     LIBCMT:_fpexcept_.obj
 0002:00005f04       ??_C@_05GKKHEGJL@frexp?$AA@ 1001bf04     LIBCMT:_fpexcept_.obj
 0002:00005f0c       ??_C@_04KEPJIHGP@fmod?$AA@ 1001bf0c     LIBCMT:_fpexcept_.obj
 0002:00005f14       ??_C@_06MEIMCGCF@_hypot?$AA@ 1001bf14     LIBCMT:_fpexcept_.obj
 0002:00005f1c       ??_C@_05KBKMEMPO@_cabs?$AA@ 1001bf1c     LIBCMT:_fpexcept_.obj
 0002:00005f24       ??_C@_05CEJMAHNP@ldexp?$AA@ 1001bf24     LIBCMT:_fpexcept_.obj
 0002:00005f2c       ??_C@_04ODHECPBC@fabs?$AA@ 1001bf2c     LIBCMT:_fpexcept_.obj
 0002:00005f34       ??_C@_04EIAKFFMI@sqrt?$AA@ 1001bf34     LIBCMT:_fpexcept_.obj
 0002:00005f3c       ??_C@_05KNGEOGJB@atan2?$AA@ 1001bf3c     LIBCMT:_fpexcept_.obj
 0002:00005f44       ??_C@_04FJHINJAO@tanh?$AA@ 1001bf44     LIBCMT:_fpexcept_.obj
 0002:00005f4c       ??_C@_04HPJJNFIM@cosh?$AA@ 1001bf4c     LIBCMT:_fpexcept_.obj
 0002:00005f54       ??_C@_04COOMCNPB@sinh?$AA@ 1001bf54     LIBCMT:_fpexcept_.obj
 0002:00005f84       ??_C@_1BK@DBDEIDLH@?$AAK?$AAE?$AAR?$AAN?$AAE?$AAL?$AA3?$AA2?$AA?4?$AAD?$AAL?$AAL?$AA?$AA@ 1001bf84     LIBCMT:tidtable.obj
 0002:00005fa0       ??_C@_07PEJMOBNF@FlsFree?$AA@ 1001bfa0     LIBCMT:tidtable.obj
 0002:00005fa8       ??_C@_0M@JCPCPOEF@FlsSetValue?$AA@ 1001bfa8     LIBCMT:tidtable.obj
 0002:00005fb4       ??_C@_0M@GDNOONDI@FlsGetValue?$AA@ 1001bfb4     LIBCMT:tidtable.obj
 0002:00005fc0       ??_C@_08KNHFBNJ@FlsAlloc?$AA@ 1001bfc0     LIBCMT:tidtable.obj
 0002:00005fcc       ??_C@_0BI@DFKBFLJE@GetProcessWindowStation?$AA@ 1001bfcc     LIBCMT:crtmboxw.obj
 0002:00005fe4       ??_C@_0BK@DEKFELLI@GetUserObjectInformationW?$AA@ 1001bfe4     LIBCMT:crtmboxw.obj
 0002:00006000       ??_C@_0BD@HHGDFDBJ@GetLastActivePopup?$AA@ 1001c000     LIBCMT:crtmboxw.obj
 0002:00006014       ??_C@_0BA@HNOPNCHB@GetActiveWindow?$AA@ 1001c014     LIBCMT:crtmboxw.obj
 0002:00006024       ??_C@_0M@DLDCCGNP@MessageBoxW?$AA@ 1001c024     LIBCMT:crtmboxw.obj
 0002:00006030       ??_C@_1BG@GOEBHBDC@?$AAU?$AAS?$AAE?$AAR?$AA3?$AA2?$AA?4?$AAD?$AAL?$AAL?$AA?$AA@ 1001c030     LIBCMT:crtmboxw.obj
 0002:00006048       __XcptActTab               1001c048     LIBCMT:winxfltr.obj
 0002:000060d8       __First_FPE_Indx           1001c0d8     LIBCMT:winxfltr.obj
 0002:000060dc       __Num_FPE                  1001c0dc     LIBCMT:winxfltr.obj
 0002:000060e0       __XcptActTabSize           1001c0e0     LIBCMT:winxfltr.obj
 0002:000060e4       __XcptActTabCount          1001c0e4     LIBCMT:winxfltr.obj
 0002:000060e8       ??_C@_1BC@GDGBMEMK@?$AAH?$AAH?$AA?3?$AAm?$AAm?$AA?3?$AAs?$AAs?$AA?$AA@ 1001c0e8     LIBCMT:nlsdata2.obj
 0002:000060fc       ??_C@_1CI@KNAKOEBC@?$AAd?$AAd?$AAd?$AAd?$AA?0?$AA?5?$AAM?$AAM?$AAM?$AAM?$AA?5?$AAd?$AAd?$AA?0?$AA?5?$AAy?$AAy?$AAy?$AAy?$AA?$AA@ 1001c0fc     LIBCMT:nlsdata2.obj
 0002:00006124       ??_C@_1BC@IEBCMHCM@?$AAM?$AAM?$AA?1?$AAd?$AAd?$AA?1?$AAy?$AAy?$AA?$AA@ 1001c124     LIBCMT:nlsdata2.obj
 0002:00006138       ??_C@_15CLMNNGEL@?$AAP?$AAM?$AA?$AA@ 1001c138     LIBCMT:nlsdata2.obj
 0002:00006140       ??_C@_15ODEHAHHF@?$AAA?$AAM?$AA?$AA@ 1001c140     LIBCMT:nlsdata2.obj
 0002:00006148       ??_C@_1BC@FEMKIFH@?$AAD?$AAe?$AAc?$AAe?$AAm?$AAb?$AAe?$AAr?$AA?$AA@ 1001c148     LIBCMT:nlsdata2.obj
 0002:0000615c       ??_C@_1BC@BGLIFPF@?$AAN?$AAo?$AAv?$AAe?$AAm?$AAb?$AAe?$AAr?$AA?$AA@ 1001c15c     LIBCMT:nlsdata2.obj
 0002:00006170       ??_C@_1BA@EPANDLNG@?$AAO?$AAc?$AAt?$AAo?$AAb?$AAe?$AAr?$AA?$AA@ 1001c170     LIBCMT:nlsdata2.obj
 0002:00006180       ??_C@_1BE@DKAAMBJL@?$AAS?$AAe?$AAp?$AAt?$AAe?$AAm?$AAb?$AAe?$AAr?$AA?$AA@ 1001c180     LIBCMT:nlsdata2.obj
 0002:00006194       ??_C@_1O@PAHLKOAC@?$AAA?$AAu?$AAg?$AAu?$AAs?$AAt?$AA?$AA@ 1001c194     LIBCMT:nlsdata2.obj
 0002:000061a4       ??_C@_19BIFMLPCD@?$AAJ?$AAu?$AAl?$AAy?$AA?$AA@ 1001c1a4     LIBCMT:nlsdata2.obj
 0002:000061b0       ??_C@_19EPFLPGAP@?$AAJ?$AAu?$AAn?$AAe?$AA?$AA@ 1001c1b0     LIBCMT:nlsdata2.obj
 0002:000061bc       ??_C@_1M@GJNLMHFD@?$AAA?$AAp?$AAr?$AAi?$AAl?$AA?$AA@ 1001c1bc     LIBCMT:nlsdata2.obj
 0002:000061c8       ??_C@_1M@IKEENEDF@?$AAM?$AAa?$AAr?$AAc?$AAh?$AA?$AA@ 1001c1c8     LIBCMT:nlsdata2.obj
 0002:000061d4       ??_C@_1BC@JGDDFFAM@?$AAF?$AAe?$AAb?$AAr?$AAu?$AAa?$AAr?$AAy?$AA?$AA@ 1001c1d4     LIBCMT:nlsdata2.obj
 0002:000061e8       ??_C@_1BA@EFMEIEBA@?$AAJ?$AAa?$AAn?$AAu?$AAa?$AAr?$AAy?$AA?$AA@ 1001c1e8     LIBCMT:nlsdata2.obj
 0002:000061f8       ??_C@_17EGKACKIF@?$AAD?$AAe?$AAc?$AA?$AA@ 1001c1f8     LIBCMT:nlsdata2.obj
 0002:00006200       ??_C@_17BBDMLCIG@?$AAN?$AAo?$AAv?$AA?$AA@ 1001c200     LIBCMT:nlsdata2.obj
 0002:00006208       ??_C@_17FNLKOI@?$AAO?$AAc?$AAt?$AA?$AA@ 1001c208     LIBCMT:nlsdata2.obj
 0002:00006210       ??_C@_17HCHCOKMG@?$AAS?$AAe?$AAp?$AA?$AA@ 1001c210     LIBCMT:nlsdata2.obj
 0002:00006218       ??_C@_17ICPELBCN@?$AAA?$AAu?$AAg?$AA?$AA@ 1001c218     LIBCMT:nlsdata2.obj
 0002:00006220       ??_C@_17IJPCKHK@?$AAJ?$AAu?$AAl?$AA?$AA@ 1001c220     LIBCMT:nlsdata2.obj
 0002:00006228       ??_C@_17KCJGOCPB@?$AAJ?$AAu?$AAn?$AA?$AA@ 1001c228     LIBCMT:nlsdata2.obj
 0002:00006230       ??_C@_17PNNKMEED@?$AAM?$AAa?$AAy?$AA?$AA@ 1001c230     LIBCMT:nlsdata2.obj
 0002:00006238       ??_C@_17LFPOIHDD@?$AAA?$AAp?$AAr?$AA?$AA@ 1001c238     LIBCMT:nlsdata2.obj
 0002:00006240       ??_C@_17CKNLEDEC@?$AAM?$AAa?$AAr?$AA?$AA@ 1001c240     LIBCMT:nlsdata2.obj
 0002:00006248       ??_C@_17LMDJEKJN@?$AAF?$AAe?$AAb?$AA?$AA@ 1001c248     LIBCMT:nlsdata2.obj
 0002:00006250       ??_C@_17DKNBKCHM@?$AAJ?$AAa?$AAn?$AA?$AA@ 1001c250     LIBCMT:nlsdata2.obj
 0002:00006258       ??_C@_1BC@ENMNNPAJ@?$AAS?$AAa?$AAt?$AAu?$AAr?$AAd?$AAa?$AAy?$AA?$AA@ 1001c258     LIBCMT:nlsdata2.obj
 0002:0000626c       ??_C@_1O@PDICJHAG@?$AAF?$AAr?$AAi?$AAd?$AAa?$AAy?$AA?$AA@ 1001c26c     LIBCMT:nlsdata2.obj
 0002:0000627c       ??_C@_1BC@HHMNLIHE@?$AAT?$AAh?$AAu?$AAr?$AAs?$AAd?$AAa?$AAy?$AA?$AA@ 1001c27c     LIBCMT:nlsdata2.obj
 0002:00006290       ??_C@_1BE@EBOGMDOH@?$AAW?$AAe?$AAd?$AAn?$AAe?$AAs?$AAd?$AAa?$AAy?$AA?$AA@ 1001c290     LIBCMT:nlsdata2.obj
 0002:000062a4       ??_C@_1BA@ENFBFFEK@?$AAT?$AAu?$AAe?$AAs?$AAd?$AAa?$AAy?$AA?$AA@ 1001c2a4     LIBCMT:nlsdata2.obj
 0002:000062b4       ??_C@_1O@MMNBFLIA@?$AAM?$AAo?$AAn?$AAd?$AAa?$AAy?$AA?$AA@ 1001c2b4     LIBCMT:nlsdata2.obj
 0002:000062c4       ??_C@_1O@IHNHDHPB@?$AAS?$AAu?$AAn?$AAd?$AAa?$AAy?$AA?$AA@ 1001c2c4     LIBCMT:nlsdata2.obj
 0002:000062d4       ??_C@_17GGIBDPIH@?$AAS?$AAa?$AAt?$AA?$AA@ 1001c2d4     LIBCMT:nlsdata2.obj
 0002:000062dc       ??_C@_17HFOLPPLP@?$AAF?$AAr?$AAi?$AA?$AA@ 1001c2dc     LIBCMT:nlsdata2.obj
 0002:000062e4       ??_C@_17PDPHAADD@?$AAT?$AAh?$AAu?$AA?$AA@ 1001c2e4     LIBCMT:nlsdata2.obj
 0002:000062ec       ??_C@_17CJEDCEPE@?$AAW?$AAe?$AAd?$AA?$AA@ 1001c2ec     LIBCMT:nlsdata2.obj
 0002:000062f4       ??_C@_17BMKGEGOJ@?$AAT?$AAu?$AAe?$AA?$AA@ 1001c2f4     LIBCMT:nlsdata2.obj
 0002:000062fc       ??_C@_17KBOMKBF@?$AAM?$AAo?$AAn?$AA?$AA@ 1001c2fc     LIBCMT:nlsdata2.obj
 0002:00006304       ??_C@_17MBGCMIPB@?$AAS?$AAu?$AAn?$AA?$AA@ 1001c304     LIBCMT:nlsdata2.obj
 0002:0000630c       ??_C@_08JCCMCCIL@HH?3mm?3ss?$AA@ 1001c30c     LIBCMT:nlsdata2.obj
 0002:00006318       ??_C@_0BE@CKGJFCPC@dddd?0?5MMMM?5dd?0?5yyyy?$AA@ 1001c318     LIBCMT:nlsdata2.obj
 0002:0000632c       ??_C@_08BPBNCDIB@MM?1dd?1yy?$AA@ 1001c32c     LIBCMT:nlsdata2.obj
 0002:00006338       ??_C@_02CJNFDJBF@PM?$AA@   1001c338     LIBCMT:nlsdata2.obj
 0002:0000633c       ??_C@_02DEDBPAFC@AM?$AA@   1001c33c     LIBCMT:nlsdata2.obj
 0002:00006340       ??_C@_08EDHMEBNP@December?$AA@ 1001c340     LIBCMT:nlsdata2.obj
 0002:0000634c       ??_C@_08HCHEGEOA@November?$AA@ 1001c34c     LIBCMT:nlsdata2.obj
 0002:00006358       ??_C@_07JJNFCEND@October?$AA@ 1001c358     LIBCMT:nlsdata2.obj
 0002:00006360       ??_C@_09BHHEALKD@September?$AA@ 1001c360     LIBCMT:nlsdata2.obj
 0002:0000636c       ??_C@_06LBBHFDDG@August?$AA@ 1001c36c     LIBCMT:nlsdata2.obj
 0002:00006374       ??_C@_04MIEPOIFP@July?$AA@ 1001c374     LIBCMT:nlsdata2.obj
 0002:0000637c       ??_C@_04CNLMGBGM@June?$AA@ 1001c37c     LIBCMT:nlsdata2.obj
 0002:00006384       ??_C@_05DMJDNLEJ@April?$AA@ 1001c384     LIBCMT:nlsdata2.obj
 0002:0000638c       ??_C@_05HPCKOFNC@March?$AA@ 1001c38c     LIBCMT:nlsdata2.obj
 0002:00006394       ??_C@_08GNJGEPFN@February?$AA@ 1001c394     LIBCMT:nlsdata2.obj
 0002:000063a0       ??_C@_07CGJPFGJA@January?$AA@ 1001c3a0     LIBCMT:nlsdata2.obj
 0002:000063a8       ??_C@_03MKABNOCG@Dec?$AA@  1001c3a8     LIBCMT:nlsdata2.obj
 0002:000063ac       ??_C@_03JPJOFNIA@Nov?$AA@  1001c3ac     LIBCMT:nlsdata2.obj
 0002:000063b0       ??_C@_03BMAOKBAD@Oct?$AA@  1001c3b0     LIBCMT:nlsdata2.obj
 0002:000063b4       ??_C@_03GGCAPAJC@Sep?$AA@  1001c3b4     LIBCMT:nlsdata2.obj
 0002:000063b8       ??_C@_03IFJFEIGA@Aug?$AA@  1001c3b8     LIBCMT:nlsdata2.obj
 0002:000063bc       ??_C@_03LBGABGKK@Jul?$AA@  1001c3bc     LIBCMT:nlsdata2.obj
 0002:000063c0       ??_C@_03IDFGHECI@Jun?$AA@  1001c3c0     LIBCMT:nlsdata2.obj
 0002:000063c4       ??_C@_03CNMDKL@May?$AA@    1001c3c4     LIBCMT:nlsdata2.obj
 0002:000063c8       ??_C@_03LEOLGMJP@Apr?$AA@  1001c3c8     LIBCMT:nlsdata2.obj
 0002:000063cc       ??_C@_03ODNJBKGA@Mar?$AA@  1001c3cc     LIBCMT:nlsdata2.obj
 0002:000063d0       ??_C@_03HJBDCHOM@Feb?$AA@  1001c3d0     LIBCMT:nlsdata2.obj
 0002:000063d4       ??_C@_03JIHJHPIE@Jan?$AA@  1001c3d4     LIBCMT:nlsdata2.obj
 0002:000063d8       ??_C@_08INBOOONO@Saturday?$AA@ 1001c3d8     LIBCMT:nlsdata2.obj
 0002:000063e4       ??_C@_06JECMNKMI@Friday?$AA@ 1001c3e4     LIBCMT:nlsdata2.obj
 0002:000063ec       ??_C@_08HACCIKIA@Thursday?$AA@ 1001c3ec     LIBCMT:nlsdata2.obj
 0002:000063f8       ??_C@_09DLIGFAKA@Wednesday?$AA@ 1001c3f8     LIBCMT:nlsdata2.obj
 0002:00006404       ??_C@_07BAAGCFCM@Tuesday?$AA@ 1001c404     LIBCMT:nlsdata2.obj
 0002:0000640c       ??_C@_06JLEDEDGH@Monday?$AA@ 1001c40c     LIBCMT:nlsdata2.obj
 0002:00006414       ??_C@_06OOPIFAJ@Sunday?$AA@ 1001c414     LIBCMT:nlsdata2.obj
 0002:0000641c       ??_C@_03FEFJNEK@Sat?$AA@   1001c41c     LIBCMT:nlsdata2.obj
 0002:00006420       ??_C@_03IDIOELNC@Fri?$AA@  1001c420     LIBCMT:nlsdata2.obj
 0002:00006424       ??_C@_03IOFIKPDN@Thu?$AA@  1001c424     LIBCMT:nlsdata2.obj
 0002:00006428       ??_C@_03MHOMLAJA@Wed?$AA@  1001c428     LIBCMT:nlsdata2.obj
 0002:0000642c       ??_C@_03NAGEINEP@Tue?$AA@  1001c42c     LIBCMT:nlsdata2.obj
 0002:00006430       ??_C@_03PDAGKDH@Mon?$AA@   1001c430     LIBCMT:nlsdata2.obj
 0002:00006434       ??_C@_03KOEHGMDN@Sun?$AA@  1001c434     LIBCMT:nlsdata2.obj
 0002:00006438       ___lookuptable_s           1001c438     LIBCMT:outputs.obj
 0002:00006498       ___newctype                1001c498     LIBCMT:ctype.obj
 0002:00006798       __wctype                   1001c798     LIBCMT:ctype.obj
 0002:000069a0       ___newclmap                1001c9a0     LIBCMT:ctype.obj
 0002:00006b20       ___newcumap                1001cb20     LIBCMT:ctype.obj
 0002:00006d20       ??_C@_06IMKFLFPG@1?$CDQNAN?$AA@ 1001cd20     LIBCMT:_x10fout_.obj
 0002:00006d28       ??_C@_05DNEBIAHO@1?$CDINF?$AA@ 1001cd28     LIBCMT:_x10fout_.obj
 0002:00006d30       ??_C@_05PHHOCPM@1?$CDIND?$AA@ 1001cd30     LIBCMT:_x10fout_.obj
 0002:00006d38       ??_C@_06PGGFOGJG@1?$CDSNAN?$AA@ 1001cd38     LIBCMT:_x10fout_.obj
 0002:00006d40       ??_C@_1BA@BALFACEM@?$AAC?$AAO?$AAN?$AAO?$AAU?$AAT?$AA$?$AA?$AA@ 1001cd40     LIBCMT:initcon.obj
 0002:00006d50       __load_config_used         1001cd50     LIBCMT:loadcfg.obj
 0002:00006da0       ___safe_se_handler_table   1001cda0     <linker-defined>
 0002:00006dac       ___rtc_iaa                 1001cdac     LIBCMT:_initsect_.obj
 0002:00006db0       ___rtc_izz                 1001cdb0     LIBCMT:_initsect_.obj
 0002:00006db4       ___rtc_taa                 1001cdb4     LIBCMT:_initsect_.obj
 0002:00006db8       ___rtc_tzz                 1001cdb8     LIBCMT:_initsect_.obj
 0002:000070b4       __IMPORT_DESCRIPTOR_KERNEL32 1001d0b4     kernel32:KERNEL32.dll
 0002:000070c8       __NULL_IMPORT_DESCRIPTOR   1001d0c8     kernel32:KERNEL32.dll
 0003:00000370       _testmodel_1109_P          1001e370     testmodel_1109_data.obj
 0003:00000ca0       _pci20041digout            1001eca0     xpctarget.obj
 0003:00000ca4       _nipcdio24cnfg             1001eca4     xpctarget.obj
 0003:00000ca8       _rtddm6604cnfg             1001eca8     xpctarget.obj
 0003:00000d90       _DefaultCOMIOBase          1001ed90     xpcruntime:xpcimports.obj
 0003:00000da0       _DefaultCOMIRQ             1001eda0     xpcruntime:xpcimports.obj
 0003:00000db0       __fltused                  1001edb0     LIBCMT:_fpinit_.obj
 0003:00000db4       __ldused                   1001edb4     LIBCMT:_fpinit_.obj
 0003:00000dd0       __iob                      1001edd0     LIBCMT:_file.obj
 0003:00001050       ___security_cookie         1001f050     LIBCMT:gs_cookie.obj
 0003:00001054       ___security_cookie_complement 1001f054     LIBCMT:gs_cookie.obj
 0003:00001230       __cfltcvt_tab              1001f230     LIBCMT:cmiscdat.obj
 0003:00001260       ___nullstring              1001f260     LIBCMT:output.obj
 0003:00001264       ___wnullstring             1001f264     LIBCMT:output.obj
 0003:00001270       __d_inf                    1001f270     LIBCMT:_util_.obj
 0003:00001278       __d_ind                    1001f278     LIBCMT:_util_.obj
 0003:00001280       __d_max                    1001f280     LIBCMT:_util_.obj
 0003:00001288       __d_min                    1001f288     LIBCMT:_util_.obj
 0003:00001290       __d_mzero                  1001f290     LIBCMT:_util_.obj
 0003:000013a0       ___badioinfo               1001f3a0     LIBCMT:ioinit.obj
 0003:00001500       __lookuptrailbytes         1001f500     LIBCMT:read.obj
 0003:00001600       ___flsindex                1001f600     LIBCMT:tidtable.obj
 0003:00001604       ___getvalueindex           1001f604     LIBCMT:tidtable.obj
 0003:00001608       ___abort_behavior          1001f608     LIBCMT:abort.obj
 0003:00001610       ___initialmbcinfo          1001f610     LIBCMT:mbctype.obj
 0003:00001830       __mbctype                  1001f830     LIBCMT:mbctype.obj
 0003:00001938       __mbcasemap                1001f938     LIBCMT:mbctype.obj
 0003:00001a38       ___ptmbcinfo               1001fa38     LIBCMT:mbctype.obj
 0003:00001b30       ___globallocalestatus      1001fb30     LIBCMT:glstatus.obj
 0003:00001b34       ___clocalestr              1001fb34     LIBCMT:nlsdata2.obj
 0003:00001b38       ___lc_time_c               1001fb38     LIBCMT:nlsdata2.obj
 0003:00001ca0       ___initiallocinfo          1001fca0     LIBCMT:nlsdata2.obj
 0003:00001d78       ___ptlocinfo               1001fd78     LIBCMT:nlsdata2.obj
 0003:00001d80       __matherr_flag             1001fd80     LIBCMT:_matherr_.obj
 0003:00001d90       __NLG_Destination          1001fd90     LIBCMT:exsup.obj
 0003:00001da0       ___lconv_static_decimal    1001fda0     LIBCMT:lconv.obj
 0003:00001da4       ___lconv_static_W_decimal  1001fda4     LIBCMT:lconv.obj
 0003:00001da8       ___lconv_c                 1001fda8     LIBCMT:lconv.obj
 0003:00001df8       ___lconv                   1001fdf8     LIBCMT:lconv.obj
 0003:00001dfc       __pctype                   1001fdfc     LIBCMT:ctype.obj
 0003:00001e00       __pwctype                  1001fe00     LIBCMT:ctype.obj
 0003:00001e38       __confh                    1001fe38     LIBCMT:initcon.obj
 0003:00001e40       ___mb_cur_max              1001fe40     LIBCMT:nlsdata1.obj
 0003:00001e44       ___decimal_point           1001fe44     LIBCMT:nlsdata1.obj
 0003:00001e48       ___decimal_point_length    1001fe48     LIBCMT:nlsdata1.obj
 0003:00001e50       __pow10pos                 1001fe50     LIBCMT:_constpow_.obj
 0003:00001fb0       __pow10neg                 1001ffb0     LIBCMT:_constpow_.obj
 0003:00002178       _pci20098PortA             10020178     xpctarget.obj
 0003:0000217c       _pci20098PortB             1002017c     xpctarget.obj
 0003:00002180       _siepowercan_firmware_initialized 10020180     xpctarget.obj
 0003:00002184       _siepowercan_port1_configured 10020184     xpctarget.obj
 0003:00002188       _siepowercan_port2_configured 10020188     xpctarget.obj
 0003:0000218c       _CANAC2_FIRMWARE_LOADED    1002018c     xpctarget.obj
 0003:00002190       _rs232ports                10020190     xpctarget.obj
 0003:000021a0       _NI_AT_MIO_16F_5_commreg2  100201a0     xpctarget.obj
 0003:000021a4       _RTD_DM6430_init           100201a4     xpctarget.obj
 0003:000021a8       _RTD_DM6420_init           100201a8     xpctarget.obj
 0003:000021ac       _CANAC2_FIRMWARE_LOADED_mb1 100201ac     xpctarget.obj
 0003:000021b0       _CANAC2_FIRMWARE_LOADED_mb2 100201b0     xpctarget.obj
 0003:000021b4       _CANAC2_FIRMWARE_LOADED_mb3 100201b4     xpctarget.obj
 0003:000021b8       _xmlsize                   100201b8     xpctarget.obj
 0003:000024c0       ___fastflag                100204c0     LIBCMT:_fpinit_.obj
 0003:000024c8       __cflush                   100204c8     LIBCMT:_file.obj
 0003:000024cc       __umaskval                 100204cc     LIBCMT:crt0dat.obj
 0003:000024d0       ___argc                    100204d0     LIBCMT:crt0dat.obj
 0003:000024d4       ___argv                    100204d4     LIBCMT:crt0dat.obj
 0003:000024d8       ___wargv                   100204d8     LIBCMT:crt0dat.obj
 0003:000024dc       __environ                  100204dc     LIBCMT:crt0dat.obj
 0003:000024e0       ___initenv                 100204e0     LIBCMT:crt0dat.obj
 0003:000024e4       __wenviron                 100204e4     LIBCMT:crt0dat.obj
 0003:000024e8       ___winitenv                100204e8     LIBCMT:crt0dat.obj
 0003:000024ec       __pgmptr                   100204ec     LIBCMT:crt0dat.obj
 0003:000024f0       __wpgmptr                  100204f0     LIBCMT:crt0dat.obj
 0003:000024f4       __exitflag                 100204f4     LIBCMT:crt0dat.obj
 0003:000024f8       __C_Termination_Done       100204f8     LIBCMT:crt0dat.obj
 0003:000024fc       __C_Exit_Done              100204fc     LIBCMT:crt0dat.obj
 0003:00002504       __aenvptr                  10020504     LIBCMT:dllcrt0.obj
 0003:00002508       __wenvptr                  10020508     LIBCMT:dllcrt0.obj
 0003:0000250c       ___error_mode              1002050c     LIBCMT:dllcrt0.obj
 0003:00002510       ___app_type                10020510     LIBCMT:dllcrt0.obj
 0003:00002b40       __crtheap                  10020b40     LIBCMT:heapinit.obj
 0003:00002b44       ?_pnhHeap@@3P6AHI@ZA       10020b44     LIBCMT:handler.obj
 0003:00002b48       __newmode                  10020b48     LIBCMT:_newmode.obj
 0003:00002b50       __stdbuf                   10020b50     LIBCMT:_sftbuf.obj
 0003:00002b58       ___pInvalidArgHandler      10020b58     LIBCMT:invarg.obj
 0003:00002b5c       __maxwait                  10020b5c     LIBCMT:crtheap.obj
 0003:00002fd4       ?__pInconsistency@@3P6AXXZA 10020fd4     LIBCMT:hooks.obj
 0003:00002ff0       ___pPurecall               10020ff0     LIBCMT:inithelp.obj
 0003:00002ff4       _gpFlsAlloc                10020ff4     LIBCMT:tidtable.obj
 0003:00002ff8       _gpFlsGetValue             10020ff8     LIBCMT:tidtable.obj
 0003:00002ffc       _gpFlsSetValue             10020ffc     LIBCMT:tidtable.obj
 0003:00003000       _gpFlsFree                 10021000     LIBCMT:tidtable.obj
 0003:00003124       ___mbulinfo                10021124     LIBCMT:mbctype.obj
 0003:00003130       ___mbcodepage              10021130     LIBCMT:mbctype.obj
 0003:00003134       ___ismbcodepage            10021134     LIBCMT:mbctype.obj
 0003:00003138       ___mblcid                  10021138     LIBCMT:mbctype.obj
 0003:0000313c       __outputformat             1002113c     LIBCMT:outputformat.obj
 0003:00003140       __commode                  10021140     LIBCMT:ncommode.obj
 0003:00003144       ___lconv_static_null       10021144     LIBCMT:lconv.obj
 0003:00003148       ___lconv_static_W_null     10021148     LIBCMT:lconv.obj
 0003:0000314c       ___locale_changed          1002114c     LIBCMT:setlocal.obj
 0003:00003150       __fmode                    10021150     LIBCMT:txtmode.obj
 0003:00003160       _ptrWritePointer2          10021160     <common>
 0003:00003170       _ptrWritePointer1          10021170     <common>
 0003:00003180       _rtInf                     10021180     <common>
 0003:00003188       _rtMinusInfF               10021188     <common>
 0003:0000318c       _rtInfF                    1002118c     <common>
 0003:00003190       _rtMinusInf                10021190     <common>
 0003:00003198       _rtNaN                     10021198     <common>
 0003:000031a0       _rtNaNF                    100211a0     <common>
 0003:000031c0       _testmodel_1109_DW         100211c0     <common>
 0003:00003300       _testmodel_1109_B          10021300     <common>
 0003:000038d0       _testmodel_1109_PrevZCX    100218d0     <common>
 0003:000038e0       _testmodel_1109_M_         100218e0     <common>
 0003:00005ef0       _xpcInpB                   10023ef0     <common>
 0003:00005ef4       _rl32eReceiveChar          10023ef4     <common>
 0003:00005ef8       _xpceUDPClose              10023ef8     <common>
 0003:00005efc       _rl32eScopeExists          10023efc     <common>
 0003:00005f00       _CreateVideoDisplay        10023f00     <common>
 0003:00005f04       _xpceCreateSemaphore       10023f04     <common>
 0003:00005f08       _xpceSetParameter          10023f08     <common>
 0003:00005f0c       _TBTakeSpinFast            10023f0c     <common>
 0003:00005f10       _xpcGetElapsedTime         10023f10     <common>
 0003:00005f14       _xpceUDPSend               10023f14     <common>
 0003:00005f18       _rl32eSetTargetScope       10023f18     <common>
 0003:00005f1c       _rl32eAddSignal            10023f1c     <common>
 0003:00005f20       _xpceAssignPCIInterrupt    10023f20     <common>
 0003:00005f24       _xpceSignalSemaphore       10023f24     <common>
 0003:00005f28       _StartVideo                10023f28     <common>
 0003:00005f2c       _startToAsyncQueueTgtAppSvc 10023f2c     <common>
 0003:00005f30       _rl32eSetTargetScopeSigFt  10023f30     <common>
 0003:00005f34       _rl32eSetScope             10023f34     <common>
 0003:00005f38       _xpceUDPOpenReceive        10023f38     <common>
 0003:00005f3c       _xpcReserveMemoryRegion    10023f3c     <common>
 0003:00005f40       _getCommService            10023f40     <common>
 0003:00005f44       _rl32eGetPCIInfoAtSlot     10023f44     <common>
 0003:00005f48       _GetVideoConfigs           10023f48     <common>
 0003:00005f4c       _rl32eReceiveBufferCount   10023f4c     <common>
 0003:00005f50       _rl32eSendBlock            10023f50     <common>
 0003:00005f54       _StartVideoDisplay         10023f54     <common>
 0003:00005f58       _ReadFrameBuffer           10023f58     <common>
 0003:00005f5c       _xpceDeRegisterISR         10023f5c     <common>
 0003:00005f60       _xpceFSScopeSet            10023f60     <common>
 0003:00005f64       _rl32eCloseCOMPort         10023f64     <common>
 0003:00005f68       _TBDeleteSpin              10023f68     <common>
 0003:00005f6c       _rl32eRestartAcquisition   10023f6c     <common>
 0003:00005f70       _rl32eDefScope             10023f70     <common>
 0003:00005f74       _rl32eShowPCIInfo          10023f74     <common>
 0003:00005f78       _xpcOutpB                  10023f78     <common>
 0003:00005f7c       _xpceWaitSemaphore         10023f7c     <common>
 0003:00005f80       _rl32eSendChar             10023f80     <common>
 0003:00005f84       _sendToAsyncQueueTgtAppSvc 10023f84     <common>
 0003:00005f88       _xpceDeleteSemaphore       10023f88     <common>
 0003:00005f8c       _getStatusFlags            10023f8c     <common>
 0003:00005f90       _rl32eGetSignalNo          10023f90     <common>
 0003:00005f94       _xpceGetTET                10023f94     <common>
 0003:00005f98       _xpceGetParameter          10023f98     <common>
 0003:00005f9c       _StopVideo                 10023f9c     <common>
 0003:00005fa0       _getMemoryService          10023fa0     <common>
 0003:00005fa4       _terminateToAsyncQueueTgtAppSvc 10023fa4     <common>
 0003:00005fa8       _xpcBusyWait               10023fa8     <common>
 0003:00005fac       _FindUsbVideoDevice        10023fac     <common>
 0003:00005fb0       _xpceaddEvent              10023fb0     <common>
 0003:00005fb4       _rl32eLineStatus           10023fb4     <common>
 0003:00005fb8       _ConvertUImage             10023fb8     <common>
 0003:00005fbc       _xpceGetParamDims          10023fbc     <common>
 0003:00005fc0       _xpcIsModelInit            10023fc0     <common>
 0003:00005fc4       _xpceFTReadTime            10023fc4     <common>
 0003:00005fc8       _rl32eGetPCIInfo           10023fc8     <common>
 0003:00005fcc       _DestroyVideoDisplay       10023fcc     <common>
 0003:00005fd0       _xpceUDPReceive            10023fd0     <common>
 0003:00005fd4       _xpceFTSubtract            10023fd4     <common>
 0003:00005fd8       _TBCreateSpin              10023fd8     <common>
 0003:00005fdc       _rl32eShowPCIDev           10023fdc     <common>
 0003:00005fe0       _xpceFTAdd                 10023fe0     <common>
 0003:00005fe4       _xpcFreePhysicalMemory     10023fe4     <common>
 0003:00005fe8       _xpcAllocPhysicalMemory    10023fe8     <common>
 0003:00005fec       _StreamVideo               10023fec     <common>
 0003:00005ff0       _xpceScopeAcqOK            10023ff0     <common>
 0003:00005ff4       _xpcInpDW                  10023ff4     <common>
 0003:00005ff8       _xpcOutpDW                 10023ff8     <common>
 0003:00005ffc       _rl32eInitCOMPort          10023ffc     <common>
 0003:00006000       _StopVideoDisplay          10024000     <common>
 0003:00006004       _xpcOutpW                  10024004     <common>
 0003:00006008       _xpceGetSignalValue        10024008     <common>
 0003:0000600c       _xpceUDPOpenSend           1002400c     <common>
 0003:00006010       _xpcInpW                   10024010     <common>
 0003:00006014       _TBGiveSpinFast            10024014     <common>
 0003:00006018       _xpceRegisterISR           10024018     <common>
 0003:0000601c       __debugger_hook_dummy      1002401c     <common>
 0003:00006020       __nhandle                  10024020     <common>
 0003:00006040       ___pioinfo                 10024040     <common>
 0003:00006140       __pDestructExceptionObject 10024140     <common>
 0003:00006144       ___sse2_available          10024144     <common>
 0003:00006148       ___use_sse2_mathfcns       10024148     <common>
 0003:0000614c       __pmatherr                 1002414c     <common>
 0003:00006150       __acmdln                   10024150     <common>
 0003:00006154       ___env_initialized         10024154     <common>
 0003:00006158       ___onexitend               10024158     <common>
 0003:0000615c       ___onexitbegin             1002415c     <common>
 0003:00006160       ___mbctype_initialized     10024160     <common>
 0003:00006164       ___dyn_tls_init_callback   10024164     <common>
 0003:00006168       ___piob                    10024168     <common>
 0003:00006180       __bufin                    10024180     <common>
 0003:00007180       __nstream                  10025180     <common>

 entry point at        0001:00009d58

 Static symbols

 0001:000001d0       _testmodel_1109_output     100011d0 f   testmodel_1109.obj
 0001:000024a0       _testmodel_1109_update     100034a0 f   testmodel_1109.obj
 0001:00002570       _testmodel_1109_initialize 10003570 f   testmodel_1109.obj
 0001:00002d20       _testmodel_1109_terminate  10003d20 f   testmodel_1109.obj
 0001:00004850       _mdlOutputs                10005850 f   xpctarget.obj
 0001:00004850       _mdlTerminate              10005850 f   xpctarget.obj
 0001:00004a10       _zffbcd1020c               10005a10 f   sg_IO601_write_s_3.obj
 0001:00004b90       _z50a448c4af               10005b90 f   sg_IO601_write_s_3.obj
 0001:00004d30       _mdlInitializeSizes        10005d30 f   sg_IO601_write_s_3.obj
 0001:00004ec0       _mdlInitializeSampleTimes  10005ec0 f   sg_IO601_write_s_3.obj
 0001:00004f30       _mdlStart                  10005f30 f   sg_IO601_write_s_3.obj
 0001:00005320       _mdlOutputs                10006320 f   sg_IO601_write_s_3.obj
 0001:00005590       _mdlTerminate              10006590 f   sg_IO601_write_s_3.obj
 0001:000057f0       _z2521217c2d               100067f0 f   sg_IO601_setup_s_3.obj
 0001:00005880       _z36e52286a2               10006880 f   sg_IO601_setup_s_3.obj
 0001:000058b0       _z2cb48b8ffe               100068b0 f   sg_IO601_setup_s_3.obj
 0001:000058f0       _z49452fc13f               100068f0 f   sg_IO601_setup_s_3.obj
 0001:00005970       _mdlInitializeSizes        10006970 f   sg_IO601_setup_s_3.obj
 0001:000059e0       _mdlInitializeSampleTimes  100069e0 f   sg_IO601_setup_s_3.obj
 0001:00005a00       _mdlStart                  10006a00 f   sg_IO601_setup_s_3.obj
 0001:00006610       _mdlTerminate              10007610 f   sg_IO601_setup_s_3.obj
 0001:00006770       _z825df60379               10007770 f   sg_IO601_read_s_3.obj
 0001:000069c0       _mdlInitializeSizes        100079c0 f   sg_IO601_read_s_3.obj
 0001:00006b10       _mdlInitializeSampleTimes  10007b10 f   sg_IO601_read_s_3.obj
 0001:00006b80       _mdlStart                  10007b80 f   sg_IO601_read_s_3.obj
 0001:00006cb0       _mdlOutputs                10007cb0 f   sg_IO601_read_s_3.obj
 0001:00007250       _getPciDeviceAtSlot        10008250 f   xpcruntime:xpcimports.obj
 0001:00007f30       _getPciDevice              10008f30 f   xpcruntime:xpcimports.obj
 0001:00009737       _doexit                    1000a737 f   LIBCMT:crt0dat.obj
 0001:00009c62       ___DllMainCRTStartup       1000ac62 f   LIBCMT:dllcrt0.obj
 0001:0000a272       __shift                    1000b272 f   LIBCMT:cvt.obj
 0001:0000a2b7       __cftoe2_l                 1000b2b7 f   LIBCMT:cvt.obj
 0001:0000a875       __cftof2_l                 1000b875 f   LIBCMT:cvt.obj
 0001:0000b999       _write_char                1000c999 f   LIBCMT:output.obj
 0001:0000b9cc       _write_string              1000c9cc f   LIBCMT:output.obj
 0001:0000d913       _flsall                    1000e913 f   LIBCMT:fflush.obj
 0001:0000e910       __unwind_handler4          1000f910 f   LIBCMT:exsup4.obj
 0001:0000ea3a       _siglookup                 1000fa3a f   LIBCMT:winsig.obj
 0001:0000f121       __onexit_nolock            10010121 f   LIBCMT:onexit.obj
 0001:0000f876       _parse_cmdline             10010876 f   LIBCMT:stdargv.obj
 0001:0000fe2d       ?CPtoLCID@@YAHH@Z          10010e2d f   LIBCMT:mbctype.obj
 0001:0000fe5c       ?setSBCS@@YAXPAUthreadmbcinfostruct@@@Z 10010e5c f   LIBCMT:mbctype.obj
 0001:0000fec0       ?setSBUpLow@@YAXPAUthreadmbcinfostruct@@@Z 10010ec0 f   LIBCMT:mbctype.obj
 0001:000100f4       ?getSystemCP@@YAHH@Z       100110f4 f   LIBCMT:mbctype.obj
 0001:00011920       __unwind_handler           10012920 f   LIBCMT:exsup.obj
 0001:00011a8a       ?x_ismbbtype_l@@YAHPAUlocaleinfo_struct@@IHH@Z 10012a8a f   LIBCMT:ismbbyte.obj
 0001:00011af5       ?__crtLCMapStringA_stat@@YAHPAUlocaleinfo_struct@@KKPBDHPADHHH@Z 10012af5 f   LIBCMT:a_map.obj
 0001:00011d22       ?__crtGetStringTypeA_stat@@YAHPAUlocaleinfo_struct@@KPBDHPAGHHH@Z 10012d22 f   LIBCMT:a_str.obj
 0001:00013e55       __hw_cw                    10014e55 f   LIBCMT:_ieee87_.obj
 0001:00013ee3       ___hw_cw_sse2              10014ee3 f   LIBCMT:_ieee87_.obj
