 testmodel_1109_xpc

 Timestamp is 5677d149 (Mon Dec 21 11:15:37 2015)

 Preferred load address is 10000000

 Start         Length     Name                   Class
 0001:00000000 00013e68H .text                   CODE
 0002:00000000 00000108H .idata$5                DATA
 0002:00000108 00000004H .CRT$XCA                DATA
 0002:0000010c 00000004H .CRT$XCZ                DATA
 0002:00000110 00000004H .CRT$XIA                DATA
 0002:00000114 00000014H .CRT$XIC                DATA
 0002:00000128 00000004H .CRT$XIZ                DATA
 0002:0000012c 00000004H .CRT$XPA                DATA
 0002:00000130 00000004H .CRT$XPX                DATA
 0002:00000134 00000004H .CRT$XPXA               DATA
 0002:00000138 00000004H .CRT$XPZ                DATA
 0002:0000013c 00000004H .CRT$XTA                DATA
 0002:00000140 00000004H .CRT$XTZ                DATA
 0002:00000150 000061c8H .rdata                  DATA
 0002:00006320 0000000cH .rdata$sxdata           DATA
 0002:0000632c 00000004H .rtc$IAA                DATA
 0002:00006330 00000004H .rtc$IZZ                DATA
 0002:00006334 00000004H .rtc$TAA                DATA
 0002:00006338 00000004H .rtc$TZZ                DATA
 0002:00006340 000002f4H .xdata$x                DATA
 0002:00006634 00000014H .idata$2                DATA
 0002:00006648 00000014H .idata$3                DATA
 0002:0000665c 00000108H .idata$4                DATA
 0002:00006764 000004b4H .idata$6                DATA
 0002:00006c20 000000c1H .edata                  DATA
 0003:00000000 000020e0H .data                   DATA
 0003:000020e0 000050c4H .bss                    DATA

  Address         Publics by Value              Rva+Base       Lib:Object

 0000:00000000       __except_list              00000000     <absolute>
 0000:00000003       ___safe_se_handler_count   00000003     <absolute>
 0000:00000000       ___ImageBase               10000000     <linker-defined>
 0001:00000000       _MWDSP_EPH_R_B             10001000 f   testmodel_1109.obj
 0001:000000a0       _MWDSP_EPH_R_D             100010a0 f   testmodel_1109.obj
 0001:00002a00       _MdlOutputs                10003a00 f   testmodel_1109.obj
 0001:00002a10       _MdlUpdate                 10003a10 f   testmodel_1109.obj
 0001:00002a20       _MdlStart                  10003a20 f   testmodel_1109.obj
 0001:00002a30       _MdlTerminate              10003a30 f   testmodel_1109.obj
 0001:00002a80       _testmodel_1109            10003a80 f   testmodel_1109.obj
 0001:00004250       _rtGetInfF                 10005250 f   rtGetInf.obj
 0001:00004270       _rtGetMinusInfF            10005270 f   rtGetInf.obj
 0001:00004290       _rtGetInf                  10005290 f   rtGetInf.obj
 0001:000042b0       _rtGetMinusInf             100052b0 f   rtGetInf.obj
 0001:000042d0       _rtGetNaNF                 100052d0 f   rtGetNaN.obj
 0001:000042f0       _rtGetNaN                  100052f0 f   rtGetNaN.obj
 0001:00004310       _rt_InitInfAndNaN          10005310 f   rt_nonfinite.obj
 0001:00004360       _rtIsInf                   10005360 f   rt_nonfinite.obj
 0001:000043a0       _rtIsNaN                   100053a0 f   rt_nonfinite.obj
 0001:000043c0       _rt_ZCFcn                  100053c0 f   rt_zcfcn.obj
 0001:00004470       _testmodel_1109_InitializeDataMapInfo 10005470 f   testmodel_1109_capi.obj
 0001:000044d0       _changeStepSize            100054d0 f   xpctarget.obj
 0001:00004520       _MdlInitializeSizes        10005520 f   testmodel_1109.obj
 0001:00004520       _updateDiscreteEvents      10005520 f   xpctarget.obj
 0001:00004520       _MdlInitializeSampleTimes  10005520 f   testmodel_1109.obj
 0001:00004530       _DllMain@12                10005530 f   xpctarget.obj
 0001:00004540       _getrlmdlinfo              10005540 f   xpctarget.obj
 0001:000046d0       _getDLMVersion             100056d0 f   xpctarget.obj
 0001:00005480       _sg_IO601_write_s_3        10006480 f   sg_IO601_write_s_3.obj
 0001:00006400       _sg_IO601_setup_s_3        10007400 f   sg_IO601_setup_s_3.obj
 0001:00006ee0       _sg_IO601_read_s_3         10007ee0 f   sg_IO601_read_s_3.obj
 0001:000071f0       _xpcInitProcs              100081f0 f   xpcruntime:xpcimports.obj
 0001:00007ef0       _GetPCIDeviceFull          10008ef0 f   xpcruntime:xpcimports.obj
 0001:00007f38       _malloc                    10008f38 f   LIBCMT:malloc.obj
 0001:00007fcd       __cfltcvt_init             10008fcd f   LIBCMT:_fpinit_.obj
 0001:0000802d       __fpmath                   1000902d f   LIBCMT:_fpinit_.obj
 0001:00008050       _ceil                      10009050 f   LIBCMT:_ceil_pentium4_.obj
 0001:00008090       __ceil_pentium4            10009090 f   LIBCMT:_ceil_pentium4_.obj
 0001:00008170       _floor                     10009170 f   LIBCMT:_floor_pentium4_.obj
 0001:000081b0       __floor_pentium4           100091b0 f   LIBCMT:_floor_pentium4_.obj
 0001:000082a0       __ftol2_sse                100092a0 f   LIBCMT:ftol2.obj
 0001:000082a9       __ftol2_pentium4           100092a9 f   LIBCMT:ftol2.obj
 0001:000082bc       __ftol2_sse_excpt          100092bc f   LIBCMT:ftol2.obj
 0001:000082d6       __ftol2                    100092d6 f   LIBCMT:ftol2.obj
 0001:00008350       _fmod                      10009350 f   LIBCMT:_87fmod_.obj
 0001:0000835a       __CIfmod                   1000935a f   LIBCMT:_87fmod_.obj
 0001:00008380       __allmul                   10009380 f   LIBCMT:llmul.obj
 0001:000083b4       _printf                    100093b4 f   LIBCMT:printf.obj
 0001:0000845b       __get_printf_count_output  1000945b f   LIBCMT:printf.obj
 0001:00008480       _memset                    10009480 f   LIBCMT:memset.obj
 0001:000084fa       _free                      100094fa f   LIBCMT:free.obj
 0001:00008534       ___iob_func                10009534 f   LIBCMT:_file.obj
 0001:0000853a       ___initstdio               1000953a f   LIBCMT:_file.obj
 0001:000085eb       ___endstdio                100095eb f   LIBCMT:_file.obj
 0001:0000860b       __lock_file                1000960b f   LIBCMT:_file.obj
 0001:0000864c       __lock_file2               1000964c f   LIBCMT:_file.obj
 0001:0000867e       __unlock_file              1000967e f   LIBCMT:_file.obj
 0001:000086ba       __unlock_file2             100096ba f   LIBCMT:_file.obj
 0001:000086e9       @__security_check_cookie@4 100096e9 f   LIBCMT:secchk.obj
 0001:00008700       _memcpy                    10009700 f   LIBCMT:memcpy.obj
 0001:00008a70       _memmove                   10009a70 f   LIBCMT:memmove.obj
 0001:00008dd1       __fclose_nolock            10009dd1 f   LIBCMT:fclose.obj
 0001:00008e3e       _fclose                    10009e3e f   LIBCMT:fclose.obj
 0001:00008eb2       _sprintf                   10009eb2 f   LIBCMT:sprintf.obj
 0001:00008f40       _strncat                   10009f40 f   LIBCMT:strncat.obj
 0001:00009080       _strncpy                   1000a080 f   LIBCMT:strncpy.obj
 0001:000091a4       ___crtCorExitProcess       1000a1a4 f   LIBCMT:crt0dat.obj
 0001:000091cf       ___crtExitProcess          1000a1cf f   LIBCMT:crt0dat.obj
 0001:000091e7       __lockexit                 1000a1e7 f   LIBCMT:crt0dat.obj
 0001:000091f0       __unlockexit               1000a1f0 f   LIBCMT:crt0dat.obj
 0001:000091f9       __init_pointers            1000a1f9 f   LIBCMT:crt0dat.obj
 0001:0000922c       __initterm_e               1000a22c f   LIBCMT:crt0dat.obj
 0001:00009250       __cinit                    1000a250 f   LIBCMT:crt0dat.obj
 0001:00009427       __exit                     1000a427 f   LIBCMT:crt0dat.obj
 0001:0000943d       __cexit                    1000a43d f   LIBCMT:crt0dat.obj
 0001:0000944c       __amsg_exit                1000a44c f   LIBCMT:crt0dat.obj
 0001:0000946a       _realloc                   1000a46a f   LIBCMT:realloc.obj
 0001:00009530       _strchr                    1000a530 f   LIBCMT:strchr.obj
 0001:00009536       ___from_strstr_to_strchr   1000a536     LIBCMT:strchr.obj
 0001:000095ee       _strncmp                   1000a5ee f   LIBCMT:strncmp.obj
 0001:000096ae       __CRT_INIT@12              1000a6ae f   LIBCMT:dllcrt0.obj
 0001:00009908       __DllMainCRTStartup@12     1000a908 f   LIBCMT:dllcrt0.obj
 0001:0000992b       __GET_RTERRMSG             1000a92b f   LIBCMT:crt0msg.obj
 0001:00009951       __NMSG_WRITE               1000a951 f   LIBCMT:crt0msg.obj
 0001:00009b00       __FF_MSGBANNER             1000ab00 f   LIBCMT:crt0msg.obj
 0001:00009b39       __heap_init                1000ab39 f   LIBCMT:heapinit.obj
 0001:00009b57       __heap_term                1000ab57 f   LIBCMT:heapinit.obj
 0001:00009b6b       __get_errno_from_oserr     1000ab6b f   LIBCMT:dosmap.obj
 0001:00009bad       __errno                    1000abad f   LIBCMT:dosmap.obj
 0001:00009bc0       ___doserrno                1000abc0 f   LIBCMT:dosmap.obj
 0001:00009bd3       __dosmaperr                1000abd3 f   LIBCMT:dosmap.obj
 0001:00009bf6       __initp_heap_handler       1000abf6 f   LIBCMT:handler.obj
 0001:00009c05       __callnewh                 1000ac05 f   LIBCMT:handler.obj
 0001:00009c2d       ??0_LocaleUpdate@@QAE@PAUlocaleinfo_struct@@@Z 1000ac2d f i LIBCMT:cvt.obj
 0001:00009cb4       __forcdecpt_l              1000acb4 f   LIBCMT:cvt.obj
 0001:00009d28       __cropzeros_l              1000ad28 f   LIBCMT:cvt.obj
 0001:00009daa       __positive                 1000adaa f   LIBCMT:cvt.obj
 0001:00009dc6       __fassign_l                1000adc6 f   LIBCMT:cvt.obj
 0001:00009e08       __fassign                  1000ae08 f   LIBCMT:cvt.obj
 0001:00009e41       __forcdecpt                1000ae41 f   LIBCMT:cvt.obj
 0001:00009e54       __cropzeros                1000ae54 f   LIBCMT:cvt.obj
 0001:00009fc8       __cftoe_l                  1000afc8 f   LIBCMT:cvt.obj
 0001:0000a08f       __cftoe                    1000b08f f   LIBCMT:cvt.obj
 0001:0000a0af       __cftoa_l                  1000b0af f   LIBCMT:cvt.obj
 0001:0000a528       __cftof_l                  1000b528 f   LIBCMT:cvt.obj
 0001:0000a5e9       __cftog_l                  1000b5e9 f   LIBCMT:cvt.obj
 0001:0000a6d6       __cfltcvt_l                1000b6d6 f   LIBCMT:cvt.obj
 0001:0000a75e       __cfltcvt                  1000b75e f   LIBCMT:cvt.obj
 0001:0000a781       __initp_misc_cfltcvt_tab   1000b781 f   LIBCMT:cmiscdat.obj
 0001:0000a7a4       __setdefaultprecision      1000b7a4 f   LIBCMT:fp8.obj
 0001:0000a7cc       ___libm_error_support      1000b7cc f   LIBCMT:_libm_error_.obj
 0001:0000aa98       __sse2_mathfcns_init       1000ba98 f   LIBCMT:_mathfcns_.obj
 0001:0000aaa8       __ceil_default             1000baa8 f   LIBCMT:_ceil_.obj
 0001:0000ab80       __floor_default            1000bb80 f   LIBCMT:_floor_.obj
 0001:0000ac58       ___sse2_available_init     1000bc58 f   LIBCMT:cpu_disp.obj
 0001:0000ac70       __cintrindisp2             1000bc70 f   LIBCMT:_87cdisp_.obj
 0001:0000acae       __cintrindisp1             1000bcae f   LIBCMT:_87cdisp_.obj
 0001:0000aceb       __ctrandisp2               1000bceb f   LIBCMT:_87cdisp_.obj
 0001:0000ae7a       __ctrandisp1               1000be7a f   LIBCMT:_87cdisp_.obj
 0001:0000aead       __fload                    1000bead f   LIBCMT:_87cdisp_.obj
 0001:0000aef0       __trandisp1                1000bef0 f   LIBCMT:_87disp_.obj
 0001:0000af57       __trandisp2                1000bf57 f   LIBCMT:_87disp_.obj
 0001:0000afe3       __rttospopde               1000bfe3     LIBCMT:_87disp_.obj
 0001:0000afe8       __rttospop                 1000bfe8     LIBCMT:_87disp_.obj
 0001:0000afea       __rtnospop                 1000bfea     LIBCMT:_87disp_.obj
 0001:0000afec       __rttosnpop                1000bfec     LIBCMT:_87disp_.obj
 0001:0000afed       __rtnospopde               1000bfed     LIBCMT:_87disp_.obj
 0001:0000aff4       __rtzeropop                1000bff4     LIBCMT:_87disp_.obj
 0001:0000aff6       __rtzeronpop               1000bff6     LIBCMT:_87disp_.obj
 0001:0000affb       __rtonepop                 1000bffb     LIBCMT:_87disp_.obj
 0001:0000affd       __rtonenpop                1000bffd     LIBCMT:_87disp_.obj
 0001:0000b002       __tosnan1                  1000c002     LIBCMT:_87disp_.obj
 0001:0000b02d       __nosnan2                  1000c02d     LIBCMT:_87disp_.obj
 0001:0000b02f       __tosnan2                  1000c02f     LIBCMT:_87disp_.obj
 0001:0000b057       __nan2                     1000c057     LIBCMT:_87disp_.obj
 0001:0000b096       __rtindfpop                1000c096     LIBCMT:_87disp_.obj
 0001:0000b098       __rtindfnpop               1000c098     LIBCMT:_87disp_.obj
 0001:0000b0a9       __rttosnpopde              1000c0a9     LIBCMT:_87disp_.obj
 0001:0000b0b3       __rtchsifneg               1000c0b3     LIBCMT:_87disp_.obj
 0001:0000b0ba       __stbuf                    1000c0ba f   LIBCMT:_sftbuf.obj
 0001:0000b156       __ftbuf                    1000c156 f   LIBCMT:_sftbuf.obj
 0001:0000b231       __output_l                 1000c231 f   LIBCMT:output.obj
 0001:0000bddd       __initp_misc_invarg        1000cddd f   LIBCMT:invarg.obj
 0001:0000bdec       __call_reportfault         1000cdec f   LIBCMT:invarg.obj
 0001:0000bf15       __invoke_watson            1000cf15 f   LIBCMT:invarg.obj
 0001:0000bf3a       __invalid_parameter        1000cf3a f   LIBCMT:invarg.obj
 0001:0000bf67       __invalid_parameter_noinfo 1000cf67 f   LIBCMT:invarg.obj
 0001:0000bf80       __SEH_prolog4              1000cf80 f   LIBCMT:sehprolg4.obj
 0001:0000bfc5       __SEH_epilog4              1000cfc5 f   LIBCMT:sehprolg4.obj
 0001:0000bfe0       __except_handler4          1000cfe0 f   LIBCMT:chandler4.obj
 0001:0000c16f       __VEC_memzero              1000d16f f   LIBCMT:p4_memset.obj
 0001:0000c229       __set_exp                  1000d229 f   LIBCMT:_util_.obj
 0001:0000c256       __sptype                   1000d256 f   LIBCMT:_util_.obj
 0001:0000c2bc       __decomp                   1000d2bc f   LIBCMT:_util_.obj
 0001:0000c37f       __raise_exc_ex             1000d37f f   LIBCMT:_fpexcept_.obj
 0001:0000c65b       __raise_exc                1000d65b f   LIBCMT:_fpexcept_.obj
 0001:0000c67e       __handle_exc               1000d67e f   LIBCMT:_fpexcept_.obj
 0001:0000c862       __set_errno_from_matherr   1000d862 f   LIBCMT:_fpexcept_.obj
 0001:0000c88f       __errcode                  1000d88f f   LIBCMT:_fpexcept_.obj
 0001:0000c8c3       __umatherr                 1000d8c3 f   LIBCMT:_fpexcept_.obj
 0001:0000c963       __handle_qnan1             1000d963 f   LIBCMT:_fpexcept_.obj
 0001:0000c9b8       __except1                  1000d9b8 f   LIBCMT:_fpexcept_.obj
 0001:0000ca82       __statfp                   1000da82 f   LIBCMT:_fpctrl_.obj
 0001:0000ca92       __clrfp                    1000da92 f   LIBCMT:_fpctrl_.obj
 0001:0000caa3       __ctrlfp                   1000daa3 f   LIBCMT:_fpctrl_.obj
 0001:0000cace       __set_statfp               1000dace f   LIBCMT:_fpctrl_.obj
 0001:0000cb26       ___set_fpsr_sse2           1000db26 f   LIBCMT:_fpctrl_.obj
 0001:0000cb98       __calloc_impl              1000db98 f   LIBCMT:calloc_impl.obj
 0001:0000cc1a       __ioinit                   1000dc1a f   LIBCMT:ioinit.obj
 0001:0000ce5f       __ioterm                   1000de5f f   LIBCMT:ioinit.obj
 0001:0000ceb2       __fileno                   1000deb2 f   LIBCMT:fileno.obj
 0001:0000ced8       __malloc_crt               1000ded8 f   LIBCMT:crtheap.obj
 0001:0000cf1d       __calloc_crt               1000df1d f   LIBCMT:crtheap.obj
 0001:0000cf69       __realloc_crt              1000df69 f   LIBCMT:crtheap.obj
 0001:0000cfb7       __fcloseall                1000dfb7 f   LIBCMT:closeall.obj
 0001:0000d053       __flush                    1000e053 f   LIBCMT:fflush.obj
 0001:0000d0bb       __fflush_nolock            1000e0bb f   LIBCMT:fflush.obj
 0001:0000d1dd       __flushall                 1000e1dd f   LIBCMT:fflush.obj
 0001:0000d1e6       __mtinitlocks              1000e1e6 f   LIBCMT:mlock.obj
 0001:0000d230       __mtdeletelocks            1000e230 f   LIBCMT:mlock.obj
 0001:0000d287       __unlock                   1000e287 f   LIBCMT:mlock.obj
 0001:0000d29e       __mtinitlocknum            1000e29e f   LIBCMT:mlock.obj
 0001:0000d360       __lock                     1000e360 f   LIBCMT:mlock.obj
 0001:0000d393       ___report_gsfailure        1000e393 f   LIBCMT:gs_report.obj
 0001:0000d499       __flsbuf                   1000e499 f   LIBCMT:_flsbuf.obj
 0001:0000d5fd       __write_nolock             1000e5fd f   LIBCMT:write.obj
 0001:0000dcfa       __write                    1000ecfa f   LIBCMT:write.obj
 0001:0000ddce       __VEC_memcpy               1000edce f   LIBCMT:p4_memcpy.obj
 0001:0000ded1       __close_nolock             1000eed1 f   LIBCMT:close.obj
 0001:0000df6d       __close                    1000ef6d f   LIBCMT:close.obj
 0001:0000e031       __freebuf                  1000f031 f   LIBCMT:_freebuf.obj
 0001:0000e070       __local_unwind4            1000f070 f   LIBCMT:exsup4.obj
 0001:0000e146       __seh_longjmp_unwind4@4    1000f146 f   LIBCMT:exsup4.obj
 0001:0000e162       @_EH4_CallFilterFunc@8     1000f162 f   LIBCMT:exsup4.obj
 0001:0000e179       @_EH4_TransferToHandler@8  1000f179 f   LIBCMT:exsup4.obj
 0001:0000e192       @_EH4_GlobalUnwind2@8      1000f192 f   LIBCMT:exsup4.obj
 0001:0000e1ab       @_EH4_LocalUnwind@16       1000f1ab f   LIBCMT:exsup4.obj
 0001:0000e1c2       ?terminate@@YAXXZ          1000f1c2 f   LIBCMT:hooks.obj
 0001:0000e1fb       __initp_eh_hooks           1000f1fb f   LIBCMT:hooks.obj
 0001:0000e20c       __initp_misc_winsig        1000f20c f   LIBCMT:winsig.obj
 0001:0000e261       ___get_sigabrt             1000f261 f   LIBCMT:winsig.obj
 0001:0000e26e       _raise                     1000f26e f   LIBCMT:winsig.obj
 0001:0000e411       __initp_misc_rand_s        1000f411 f   LIBCMT:rand_s.obj
 0001:0000e420       __initp_misc_purevirt      1000f420 f   LIBCMT:inithelp.obj
 0001:0000e42f       __encoded_null             1000f42f f   LIBCMT:tidtable.obj
 0001:0000e438       ___crtTlsAlloc@4           1000f438 f   LIBCMT:tidtable.obj
 0001:0000e441       ___set_flsgetvalue         1000f441 f   LIBCMT:tidtable.obj
 0001:0000e475       __mtterm                   1000f475 f   LIBCMT:tidtable.obj
 0001:0000e4b2       __initptd                  1000f4b2 f   LIBCMT:tidtable.obj
 0001:0000e566       __getptd_noexit            1000f566 f   LIBCMT:tidtable.obj
 0001:0000e5df       __getptd                   1000f5df f   LIBCMT:tidtable.obj
 0001:0000e5f9       __freefls@4                1000f5f9 f   LIBCMT:tidtable.obj
 0001:0000e728       __freeptd                  1000f728 f   LIBCMT:tidtable.obj
 0001:0000e796       __mtinit                   1000f796 f   LIBCMT:tidtable.obj
 0001:0000e9c7       ___onexitinit              1000f9c7 f   LIBCMT:onexit.obj
 0001:0000e9f8       __onexit                   1000f9f8 f   LIBCMT:onexit.obj
 0001:0000ea34       _atexit                    1000fa34 f   LIBCMT:onexit.obj
 0001:0000ea4b       __RTC_Initialize           1000fa4b f   LIBCMT:_initsect_.obj
 0001:0000ea71       __RTC_Terminate            1000fa71 f   LIBCMT:_initsect_.obj
 0001:0000eaa0       __ValidateImageBase        1000faa0 f   LIBCMT:pesect.obj
 0001:0000eae0       __FindPESection            1000fae0 f   LIBCMT:pesect.obj
 0001:0000eb30       __IsNonwritableInCurrentImage 1000fb30 f   LIBCMT:pesect.obj
 0001:0000ebec       _abort                     1000fbec f   LIBCMT:abort.obj
 0001:0000ec1f       ___crtMessageBoxW          1000fc1f f   LIBCMT:crtmboxw.obj
 0001:0000ed8b       _wcsncpy_s                 1000fd8b f   LIBCMT:wcsncpy_s.obj
 0001:0000ee58       _wcslen                    1000fe58 f   LIBCMT:wcslen.obj
 0001:0000ee73       _wcscat_s                  1000fe73 f   LIBCMT:wcscat_s.obj
 0001:0000eee8       _wcscpy_s                  1000fee8 f   LIBCMT:wcscpy_s.obj
 0001:0000ef4b       __set_error_mode           1000ff4b f   LIBCMT:errmode.obj
 0001:0000ef8a       __setenvp                  1000ff8a f   LIBCMT:stdenvp.obj
 0001:0000f200       __setargv                  10010200 f   LIBCMT:stdargv.obj
 0001:0000f2bb       ___crtGetEnvironmentStringsA 100102bb f   LIBCMT:a_env.obj
 0001:0000f352       __XcptFilter               10010352 f   LIBCMT:winxfltr.obj
 0001:0000f49c       ___CppXcptFilter           1001049c f   LIBCMT:winxfltr.obj
 0001:0000f4bc       ___security_init_cookie    100104bc f   LIBCMT:gs_support.obj
 0001:0000f560       _strlen                    10010560 f   LIBCMT:strlen.obj
 0001:0000f5f0       _strrchr                   100105f0 f   LIBCMT:strrchr.obj
 0001:0000f840       ___updatetmbcinfo          10010840 f   LIBCMT:mbctype.obj
 0001:0000f960       __setmbcp_nolock           10010960 f   LIBCMT:mbctype.obj
 0001:0000fb49       __setmbcp                  10010b49 f   LIBCMT:mbctype.obj
 0001:0000fce3       ___initmbctable            10010ce3 f   LIBCMT:mbctype.obj
 0001:0000fd01       ___addlocaleref            10010d01 f   LIBCMT:localref.obj
 0001:0000fd90       ___removelocaleref         10010d90 f   LIBCMT:localref.obj
 0001:0000fe29       ___freetlocinfo            10010e29 f   LIBCMT:localref.obj
 0001:0000ff74       __updatetlocinfoEx_nolock  10010f74 f   LIBCMT:localref.obj
 0001:0000ffc1       ___updatetlocinfo          10010fc1 f   LIBCMT:localref.obj
 0001:0001003a       __isdigit_l                1001103a f i LIBCMT:_ctype.obj
 0001:0001008b       _isdigit                   1001108b f i LIBCMT:_ctype.obj
 0001:000100b9       __tolower_l                100110b9 f   LIBCMT:tolower.obj
 0001:000101ce       _tolower                   100111ce f   LIBCMT:tolower.obj
 0001:000101fa       __atodbl_l                 100111fa f   LIBCMT:atodbl.obj
 0001:000102a2       __atoflt_l                 100112a2 f   LIBCMT:atodbl.obj
 0001:0001034a       _strcpy_s                  1001134a f   LIBCMT:strcpy_s.obj
 0001:000103a9       __fptostr                  100113a9 f   LIBCMT:_fptostr.obj
 0001:0001045c       ___dtold                   1001145c f   LIBCMT:_cfout_.obj
 0001:0001050f       __fltout2                  1001150f f   LIBCMT:_cfout_.obj
 0001:000105a0       __alldvrm                  100115a0 f   LIBCMT:lldvrm.obj
 0001:00010680       __aullshr                  10011680 f   LIBCMT:ullshr.obj
 0001:0001069f       __fptrap                   1001169f f   LIBCMT:crt0fp.obj
 0001:000106a8       __controlfp_s              100116a8 f   LIBCMT:_contrlfp_.obj
 0001:00010707       __matherr                  10011707 f   LIBCMT:_matherr_.obj
 0001:0001070a       __frnd                     1001170a f   LIBCMT:_frnd_.obj
 0001:0001071e       __87except                 1001171e f   LIBCMT:_87except_.obj
 0001:0001085d       __isatty                   1001185d f   LIBCMT:isatty.obj
 0001:000108b3       __wctomb_s_l               100118b3 f   LIBCMT:wctomb.obj
 0001:00010a08       _wctomb_s                  10011a08 f   LIBCMT:wctomb.obj
 0001:00010a25       __isleadbyte_l             10011a25 f i LIBCMT:_wctype.obj
 0001:00010a5d       _isleadbyte                10011a5d f i LIBCMT:_wctype.obj
 0001:00010a70       __aulldvrm                 10011a70 f   LIBCMT:ulldvrm.obj
 0001:00010b05       __crt_debugger_hook        10011b05 f   LIBCMT:dbghook.obj
 0001:00010b0d       __commit                   10011b0d f   LIBCMT:commit.obj
 0001:00010be6       __lseeki64_nolock          10011be6 f   LIBCMT:lseeki64.obj
 0001:00010c6b       __lseeki64                 10011c6b f   LIBCMT:lseeki64.obj
 0001:00010d55       __getbuf                   10011d55 f   LIBCMT:_getbuf.obj
 0001:00010d9e       __putwch_nolock            10011d9e f   LIBCMT:putwch.obj
 0001:00010de0       __mbtowc_l                 10011de0 f   LIBCMT:mbtowc.obj
 0001:00010ef6       _mbtowc                    10011ef6 f   LIBCMT:mbtowc.obj
 0001:00010f10       __alloca_probe             10011f10     LIBCMT:chkstk.obj
 0001:00010f10       __chkstk                   10011f10 f   LIBCMT:chkstk.obj
 0001:00010f3b       __free_osfhnd              10011f3b f   LIBCMT:osfinfo.obj
 0001:00010fc1       __get_osfhandle            10011fc1 f   LIBCMT:osfinfo.obj
 0001:0001102a       ___lock_fhandle            1001202a f   LIBCMT:osfinfo.obj
 0001:000110c9       __unlock_fhandle           100120c9 f   LIBCMT:osfinfo.obj
 0001:000110f0       __global_unwind2           100120f0 f   LIBCMT:exsup.obj
 0001:00011155       __local_unwind2            10012155 f   LIBCMT:exsup.obj
 0001:000111d9       __abnormal_termination     100121d9 f   LIBCMT:exsup.obj
 0001:000111fc       __NLG_Notify1              100121fc f   LIBCMT:exsup.obj
 0001:00011205       __NLG_Notify               10012205 f   LIBCMT:exsup.obj
 0001:0001121c       __NLG_Dispatch2            1001221c     LIBCMT:exsup.obj
 0001:0001121c       __NLG_Dispatch             1001221c     LIBCMT:exsup.obj
 0001:00011224       __NLG_Call                 10012224 f   LIBCMT:exsup.obj
 0001:00011226       __NLG_Return2              10012226     LIBCMT:exsup.obj
 0001:00011227       __freea                    10012227 f i LIBCMT:a_loc.obj
 0001:00011247       __msize                    10012247 f   LIBCMT:msize.obj
 0001:000112cd       __ismbblead                100122cd f   LIBCMT:ismbbyte.obj
 0001:000114cc       ___crtLCMapStringA         100124cc f   LIBCMT:a_map.obj
 0001:000115f9       ___crtGetStringTypeA       100125f9 f   LIBCMT:a_str.obj
 0001:00011639       ___free_lc_time            10012639 f   LIBCMT:inittime.obj
 0001:000119b0       ___free_lconv_num          100129b0 f   LIBCMT:initnum.obj
 0001:00011a19       ___free_lconv_mon          10012a19 f   LIBCMT:initmon.obj
 0001:00011b17       __isctype_l                10012b17 f   LIBCMT:isctype.obj
 0001:00011bcf       __ld12tod                  10012bcf f   LIBCMT:_intrncvt_.obj
 0001:00012120       __ld12tof                  10013120 f   LIBCMT:_intrncvt_.obj
 0001:00012671       ___strgtold12_l            10013671 f   LIBCMT:_strgtold_.obj
 0001:00012d4d       _$I10_OUTPUT               10013d4d f   LIBCMT:_x10fout_.obj
 0001:00013773       __control87                10014773 f i LIBCMT:_ieee87_.obj
 0001:00013a85       ___initconout              10014a85 f   LIBCMT:initcon.obj
 0001:00013aa4       ___termconout              10014aa4 f   LIBCMT:initcon.obj
 0001:00013ac0       __alloca_probe_16          10014ac0 f   LIBCMT:alloca16.obj
 0001:00013ad6       __alloca_probe_8           10014ad6     LIBCMT:alloca16.obj
 0001:00013af0       _strcspn                   10014af0 f   LIBCMT:strcspn.obj
 0001:00013b40       _strcmp                    10014b40 f   LIBCMT:strcmp.obj
 0001:00013bd0       _strpbrk                   10014bd0 f   LIBCMT:strpbrk.obj
 0001:00013c10       ___mtold12                 10014c10 f   LIBCMT:_mantold_.obj
 0001:00013e00       ___ascii_strnicmp          10014e00 f   LIBCMT:_strnicm.obj
 0001:00013e62       _RtlUnwind@16              10014e62 f   kernel32:KERNEL32.dll
 0002:00000000       __imp__GetProcAddress@8    10015000     kernel32:KERNEL32.dll
 0002:00000004       __imp__GetModuleHandleA@4  10015004     kernel32:KERNEL32.dll
 0002:00000008       __imp__HeapAlloc@12        10015008     kernel32:KERNEL32.dll
 0002:0000000c       __imp__GetLastError@0      1001500c     kernel32:KERNEL32.dll
 0002:00000010       __imp__HeapFree@12         10015010     kernel32:KERNEL32.dll
 0002:00000014       __imp__EnterCriticalSection@4 10015014     kernel32:KERNEL32.dll
 0002:00000018       __imp__LeaveCriticalSection@4 10015018     kernel32:KERNEL32.dll
 0002:0000001c       __imp__GetModuleHandleW@4  1001501c     kernel32:KERNEL32.dll
 0002:00000020       __imp__ExitProcess@4       10015020     kernel32:KERNEL32.dll
 0002:00000024       __imp__DecodePointer@4     10015024     kernel32:KERNEL32.dll
 0002:00000028       __imp__HeapReAlloc@16      10015028     kernel32:KERNEL32.dll
 0002:0000002c       __imp__WriteConsoleW@20    1001502c     kernel32:KERNEL32.dll
 0002:00000030       __imp__GetFileType@4       10015030     kernel32:KERNEL32.dll
 0002:00000034       __imp__GetStdHandle@4      10015034     kernel32:KERNEL32.dll
 0002:00000038       __imp__GetModuleFileNameW@12 10015038     kernel32:KERNEL32.dll
 0002:0000003c       __imp__GetCurrentThreadId@0 1001503c     kernel32:KERNEL32.dll
 0002:00000040       __imp__GetCommandLineA@0   10015040     kernel32:KERNEL32.dll
 0002:00000044       __imp__WriteFile@20        10015044     kernel32:KERNEL32.dll
 0002:00000048       __imp__HeapCreate@12       10015048     kernel32:KERNEL32.dll
 0002:0000004c       __imp__HeapDestroy@4       1001504c     kernel32:KERNEL32.dll
 0002:00000050       __imp__EncodePointer@4     10015050     kernel32:KERNEL32.dll
 0002:00000054       __imp__IsProcessorFeaturePresent@4 10015054     kernel32:KERNEL32.dll
 0002:00000058       __imp__UnhandledExceptionFilter@4 10015058     kernel32:KERNEL32.dll
 0002:0000005c       __imp__SetUnhandledExceptionFilter@4 1001505c     kernel32:KERNEL32.dll
 0002:00000060       __imp__IsDebuggerPresent@0 10015060     kernel32:KERNEL32.dll
 0002:00000064       __imp__TerminateProcess@8  10015064     kernel32:KERNEL32.dll
 0002:00000068       __imp__GetCurrentProcess@0 10015068     kernel32:KERNEL32.dll
 0002:0000006c       __imp__RaiseException@16   1001506c     kernel32:KERNEL32.dll
 0002:00000070       __imp__SetHandleCount@4    10015070     kernel32:KERNEL32.dll
 0002:00000074       __imp__InitializeCriticalSectionAndSpinCount@8 10015074     kernel32:KERNEL32.dll
 0002:00000078       __imp__GetStartupInfoW@4   10015078     kernel32:KERNEL32.dll
 0002:0000007c       __imp__DeleteCriticalSection@4 1001507c     kernel32:KERNEL32.dll
 0002:00000080       __imp__Sleep@4             10015080     kernel32:KERNEL32.dll
 0002:00000084       __imp__WideCharToMultiByte@32 10015084     kernel32:KERNEL32.dll
 0002:00000088       __imp__GetConsoleCP@0      10015088     kernel32:KERNEL32.dll
 0002:0000008c       __imp__GetConsoleMode@8    1001508c     kernel32:KERNEL32.dll
 0002:00000090       __imp__CloseHandle@4       10015090     kernel32:KERNEL32.dll
 0002:00000094       __imp__MultiByteToWideChar@24 10015094     kernel32:KERNEL32.dll
 0002:00000098       __imp__SetFilePointer@16   10015098     kernel32:KERNEL32.dll
 0002:0000009c       __imp__RtlUnwind@16        1001509c     kernel32:KERNEL32.dll
 0002:000000a0       __imp__LoadLibraryW@4      100150a0     kernel32:KERNEL32.dll
 0002:000000a4       __imp__TlsAlloc@0          100150a4     kernel32:KERNEL32.dll
 0002:000000a8       __imp__TlsGetValue@4       100150a8     kernel32:KERNEL32.dll
 0002:000000ac       __imp__TlsSetValue@8       100150ac     kernel32:KERNEL32.dll
 0002:000000b0       __imp__TlsFree@4           100150b0     kernel32:KERNEL32.dll
 0002:000000b4       __imp__InterlockedIncrement@4 100150b4     kernel32:KERNEL32.dll
 0002:000000b8       __imp__SetLastError@4      100150b8     kernel32:KERNEL32.dll
 0002:000000bc       __imp__InterlockedDecrement@4 100150bc     kernel32:KERNEL32.dll
 0002:000000c0       __imp__GetModuleFileNameA@12 100150c0     kernel32:KERNEL32.dll
 0002:000000c4       __imp__FreeEnvironmentStringsW@4 100150c4     kernel32:KERNEL32.dll
 0002:000000c8       __imp__GetEnvironmentStringsW@0 100150c8     kernel32:KERNEL32.dll
 0002:000000cc       __imp__QueryPerformanceCounter@4 100150cc     kernel32:KERNEL32.dll
 0002:000000d0       __imp__GetTickCount@0      100150d0     kernel32:KERNEL32.dll
 0002:000000d4       __imp__GetCurrentProcessId@0 100150d4     kernel32:KERNEL32.dll
 0002:000000d8       __imp__GetSystemTimeAsFileTime@4 100150d8     kernel32:KERNEL32.dll
 0002:000000dc       __imp__GetCPInfo@8         100150dc     kernel32:KERNEL32.dll
 0002:000000e0       __imp__GetACP@0            100150e0     kernel32:KERNEL32.dll
 0002:000000e4       __imp__GetOEMCP@0          100150e4     kernel32:KERNEL32.dll
 0002:000000e8       __imp__IsValidCodePage@4   100150e8     kernel32:KERNEL32.dll
 0002:000000ec       __imp__FlushFileBuffers@4  100150ec     kernel32:KERNEL32.dll
 0002:000000f0       __imp__SetStdHandle@8      100150f0     kernel32:KERNEL32.dll
 0002:000000f4       __imp__HeapSize@12         100150f4     kernel32:KERNEL32.dll
 0002:000000f8       __imp__LCMapStringW@24     100150f8     kernel32:KERNEL32.dll
 0002:000000fc       __imp__GetStringTypeW@16   100150fc     kernel32:KERNEL32.dll
 0002:00000100       __imp__CreateFileW@28      10015100     kernel32:KERNEL32.dll
 0002:00000104       \177KERNEL32_NULL_THUNK_DATA 10015104     kernel32:KERNEL32.dll
 0002:00000108       ___xc_a                    10015108     LIBCMT:crt0init.obj
 0002:0000010c       ___xc_z                    1001510c     LIBCMT:crt0init.obj
 0002:00000110       ___xi_a                    10015110     LIBCMT:crt0init.obj
 0002:00000128       ___xi_z                    10015128     LIBCMT:crt0init.obj
 0002:0000012c       ___xp_a                    1001512c     LIBCMT:crt0init.obj
 0002:00000138       ___xp_z                    10015138     LIBCMT:crt0init.obj
 0002:0000013c       ___xt_a                    1001513c     LIBCMT:crt0init.obj
 0002:00000140       ___xt_z                    10015140     LIBCMT:crt0init.obj
 0002:00000150       _testmodel_1109_M          10015150     testmodel_1109.obj
 0002:00000158       __real@0000000000000000    10015158     testmodel_1109.obj
 0002:00000160       __real@bfe0000000000000    10015160     testmodel_1109.obj
 0002:00000168       __real@3fe0000000000000    10015168     testmodel_1109.obj
 0002:00000170       __real@4330000000000000    10015170     testmodel_1109.obj
 0002:00000178       __real@4070000000000000    10015178     testmodel_1109.obj
 0002:00000180       __real@3ff0000000000000    10015180     testmodel_1109.obj
 0002:00000188       __real@41efffffffe00000    10015188     testmodel_1109.obj
 0002:00000190       __real@406fe00000000000    10015190     testmodel_1109.obj
 0002:00000198       __real@41f0000000000000    10015198     testmodel_1109.obj
 0002:000001a0       ??_C@_0L@EGDDIMCB@CtrHit?4dat?$AA@ 100151a0     testmodel_1109.obj
 0002:000001ac       ??_C@_0DB@KIJOACGP@IO601?1ReadQueueSS?1CountACK?1Data?5@ 100151ac     testmodel_1109.obj
 0002:000001e0       ??_C@_0CH@IOONEJCG@IO601?1ReadQueueSS?1CountACK?1Count@ 100151e0     testmodel_1109.obj
 0002:00000208       ??_C@_0M@NHKNLCAG@pos_vel?4dat?$AA@ 10015208     testmodel_1109.obj
 0002:00000218       __real@40d3880000000000    10015218     testmodel_1109.obj
 0002:00000220       __real@c0d3880000000000    10015220     testmodel_1109.obj
 0002:00000228       __real@4000000000000000    10015228     testmodel_1109.obj
 0002:00000230       __real@40c86a0000000000    10015230     testmodel_1109.obj
 0002:00000238       ??_C@_0BM@FIBEALDL@IO601?1Data?5Type?5Conversion2?$AA@ 10015238     testmodel_1109.obj
 0002:00000254       ??_C@_0BL@LEJAHLLN@IO601?1Data?5Type?5Conversion?$AA@ 10015254     testmodel_1109.obj
 0002:00000270       ??_C@_0BM@HDDJFIPI@IO601?1Data?5Type?5Conversion1?$AA@ 10015270     testmodel_1109.obj
 0002:0000028c       ??_C@_0BI@PBFPDHLE@Error?5creating?5scope?54?6?$AA@ 1001528c     testmodel_1109.obj
 0002:000002a4       ??_C@_0BI@PHJEPFFP@Error?5creating?5scope?51?6?$AA@ 100152a4     testmodel_1109.obj
 0002:000002bc       ??_C@_0BI@PEBACBDB@Error?5creating?5scope?53?6?$AA@ 100152bc     testmodel_1109.obj
 0002:000002d4       ??_C@_0BP@OMOIOGJO@testmodel_1109?1IO601?1Read?5?$CIv3?$CJ?$AA@ 100152d4     testmodel_1109.obj
 0002:000002f4       ??_C@_09OPKJHFF@Read?5?$CIv3?$CJ?$AA@ 100152f4     testmodel_1109.obj
 0002:00000300       ??_C@_0CA@OAGDELBO@testmodel_1109?1IO601?1Write?5?$CIv3?$CJ?$AA@ 10015300     testmodel_1109.obj
 0002:00000320       ??_C@_0CA@DBALLENM@testmodel_1109?1IO601?1Setup?5?$CIv3?$CJ?$AA@ 10015320     testmodel_1109.obj
 0002:00000340       ??_C@_0L@DNFPLNJF@Setup?5?$CIv3?$CJ?$AA@ 10015340     testmodel_1109.obj
 0002:0000034c       ??_C@_0DF@ECOLCIKP@testmodel_1109?1IO601?1Initialize?1@ 1001534c     testmodel_1109.obj
 0002:00000384       ??_C@_0DL@DKMNDHH@testmodel_1109?1IO601?1Initialize?1@ 10015384     testmodel_1109.obj
 0002:000003c0       ??_C@_0DI@BDFDBDPB@testmodel_1109?1IO601?1Initialize?1@ 100153c0     testmodel_1109.obj
 0002:000003f8       ??_C@_0CO@JDHIMHLK@testmodel_1109?1IO601?1DefaultConf@ 100153f8     testmodel_1109.obj
 0002:00000428       ??_C@_0L@OMDHECFH@Write?5?$CIv3?$CJ?$AA@ 10015428     testmodel_1109.obj
 0002:00000434       ??_C@_0CJ@NNCENNFA@testmodel_1109?1IO601?1CANSend?1Wri@ 10015434     testmodel_1109.obj
 0002:00000460       ??_C@_0M@DDLOPEKH@Write?5?$CIv3?$CJ1?$AA@ 10015460     testmodel_1109.obj
 0002:0000046c       ??_C@_03HBFGMJOD@rt_?$AA@  1001546c     testmodel_1109.obj
 0002:00000470       ??_C@_04EPKDLPPB@tout?$AA@ 10015470     testmodel_1109.obj
 0002:00000478       ??_C@_0BC@OJJPBDHH@FixedStepDiscrete?$AA@ 10015478     testmodel_1109.obj
 0002:00000490       __real@4049000000000000    10015490     testmodel_1109.obj
 0002:00000498       ??_C@_00CNPNBAHC@?$AA@     10015498     testmodel_1109.obj
 0002:000004a0       __real@3f70624dd2f1a9fc    100154a0     testmodel_1109.obj
 0002:000004a8       _CAN_DATATYPE_GROUND       100154a8     can_datatype_ground.obj
 0002:00000bc0       __real@bff0000000000000    10015bc0     rt_logging.obj
 0002:00000bf0       ??_C@_0BI@INNPNFJN@Memory?5Allocation?5Error?$AA@ 10015bf0     rtw_modelmap_utils.obj
 0002:00000c08       ??_C@_05KNFBNCOH@float?$AA@ 10015c08     testmodel_1109_capi.obj
 0002:00000c10       ??_C@_08NHGKGJKC@uint16_T?$AA@ 10015c10     testmodel_1109_capi.obj
 0002:00000c1c       ??_C@_0P@IIMKEEHB@unsigned?5short?$AA@ 10015c1c     testmodel_1109_capi.obj
 0002:00000c2c       ??_C@_08CCMIKNJF@uint32_T?$AA@ 10015c2c     testmodel_1109_capi.obj
 0002:00000c38       ??_C@_0N@OFHMGPAL@unsigned?5int?$AA@ 10015c38     testmodel_1109_capi.obj
 0002:00000c48       ??_C@_07NCEHLPOC@uint8_T?$AA@ 10015c48     testmodel_1109_capi.obj
 0002:00000c50       ??_C@_06MOLJCAAB@int8_T?$AA@ 10015c50     testmodel_1109_capi.obj
 0002:00000c58       ??_C@_0M@MPLPCMBL@signed?5char?$AA@ 10015c58     testmodel_1109_capi.obj
 0002:00000c64       ??_C@_0N@HINIGIGN@CAN_DATATYPE?$AA@ 10015c64     testmodel_1109_capi.obj
 0002:00000c74       ??_C@_07MMLECJPG@numeric?$AA@ 10015c74     testmodel_1109_capi.obj
 0002:00000c7c       ??_C@_09JBMFCIMO@boolean_T?$AA@ 10015c7c     testmodel_1109_capi.obj
 0002:00000c88       ??_C@_0O@PPAIJIHF@unsigned?5char?$AA@ 10015c88     testmodel_1109_capi.obj
 0002:00000c98       ??_C@_06CNMIJIPB@real_T?$AA@ 10015c98     testmodel_1109_capi.obj
 0002:00000ca0       ??_C@_06BNJCAIGJ@double?$AA@ 10015ca0     testmodel_1109_capi.obj
 0002:00000ca8       ??_C@_07BLNHOAMI@int32_T?$AA@ 10015ca8     testmodel_1109_capi.obj
 0002:00000cb0       ??_C@_03JBIPMCLC@int?$AA@  10015cb0     testmodel_1109_capi.obj
 0002:00000cb4       ??_C@_08OOPKMNBD@HitValue?$AA@ 10015cb4     testmodel_1109_capi.obj
 0002:00000cc0       ??_C@_0N@LIAJDDBE@InitialCount?$AA@ 10015cc0     testmodel_1109_capi.obj
 0002:00000cd0       ??_C@_0CE@DNFBLHHE@IO601?1ReadQueueSS?1CountACK?1Count@ 10015cd0     testmodel_1109_capi.obj
 0002:00000cf4       ??_C@_05NAMIGJNB@vinit?$AA@ 10015cf4     testmodel_1109_capi.obj
 0002:00000cfc       ??_C@_0CL@LMCIILAP@IO601?1ReadQueueSS?1CountACK?1Detec@ 10015cfc     testmodel_1109_capi.obj
 0002:00000d28       ??_C@_0L@HPPBCIFA@TruthTable?$AA@ 10015d28     testmodel_1109_capi.obj
 0002:00000d34       ??_C@_0CG@IBFMBGBJ@IO601?1J?9K?5Flip?9Flop1?1J?9K?5Flip?9Fl@ 10015d34     testmodel_1109_capi.obj
 0002:00000d5c       ??_C@_0CF@NBFDMMEA@IO601?1J?9K?5Flip?9Flop1?1J?9K?5Flip?9Fl@ 10015d5c     testmodel_1109_capi.obj
 0002:00000d84       ??_C@_0CG@MLOIINPD@IO601?1Initialize?1QuitError?1Write@ 10015d84     testmodel_1109_capi.obj
 0002:00000dac       ??_C@_0CF@GHMGCHLH@IO601?1Initialize?1QuitError?1Const@ 10015dac     testmodel_1109_capi.obj
 0002:00000dd4       ??_C@_0CF@HONNBGPG@IO601?1Initialize?1QuitError?1Const@ 10015dd4     testmodel_1109_capi.obj
 0002:00000dfc       ??_C@_0CM@DMHGIEPM@IO601?1Initialize?1InitialPosition@ 10015dfc     testmodel_1109_capi.obj
 0002:00000e28       ??_C@_0CL@MNMCNCKF@IO601?1Initialize?1InitialPosition@ 10015e28     testmodel_1109_capi.obj
 0002:00000e54       ??_C@_0CL@ICIDEEGC@IO601?1Initialize?1InitialPosition@ 10015e54     testmodel_1109_capi.obj
 0002:00000e80       ??_C@_0CL@KJKOBHKB@IO601?1Initialize?1InitialPosition@ 10015e80     testmodel_1109_capi.obj
 0002:00000eac       ??_C@_0CJ@DMIMNNLK@IO601?1Initialize?1GetState?$CIms?$CJ?1Wr@ 10015eac     testmodel_1109_capi.obj
 0002:00000ed8       ??_C@_0CF@KBLHOCOH@IO601?1Initialize?1GetState?$CIms?$CJ?1st@ 10015ed8     testmodel_1109_capi.obj
 0002:00000f00       ??_C@_0CI@DIADENEG@IO601?1Initialize?1GetState?$CIms?$CJ?1Ti@ 10015f00     testmodel_1109_capi.obj
 0002:00000f28       ??_C@_0CK@IHMBEOEM@IO601?1Initialize?1GetState?$CIms?$CJ?1Ge@ 10015f28     testmodel_1109_capi.obj
 0002:00000f54       ??_C@_0CG@EBNFNLLB@IO601?1Initialize?1GetState?$CIms?$CJ?1Da@ 10015f54     testmodel_1109_capi.obj
 0002:00000f7c       ??_C@_0BM@MBPDBCPP@IO601?1CANSend?1movVel?1FragSt?$AA@ 10015f7c     testmodel_1109_capi.obj
 0002:00000f98       ??_C@_0BM@GJHFDHOG@IO601?1CANSend?1movVel?1FragEn?$AA@ 10015f98     testmodel_1109_capi.obj
 0002:00000fb4       ??_C@_0BM@JJFBFHEJ@IO601?1CANSend?1movVel?1D?9Len1?$AA@ 10015fb4     testmodel_1109_capi.obj
 0002:00000fd0       ??_C@_0BL@JNIPDDJ@IO601?1CANSend?1movVel?1D?9Len?$AA@ 10015fd0     testmodel_1109_capi.obj
 0002:00000fec       ??_C@_0BJ@FJNMGFPN@IO601?1CANSend?1movVel?1Cmd?$AA@ 10015fec     testmodel_1109_capi.obj
 0002:00001008       ??_C@_0BL@PIDBKHJM@IO601?1CANSend?1STOP?1StopCmd?$AA@ 10016008     testmodel_1109_capi.obj
 0002:00001024       ??_C@_0BL@CDKHMJMJ@IO601?1CANSend?1STOP?1DataLen?$AA@ 10016024     testmodel_1109_capi.obj
 0002:00001040       ??_C@_0CH@NNHMAEGH@IO601?1CANSend?1GetState?5?$CIonce?$CJ?1po@ 10016040     testmodel_1109_capi.obj
 0002:00001068       ??_C@_0CL@MJMCPGNE@IO601?1CANSend?1GetState?5?$CIonce?$CJ?1Ge@ 10016068     testmodel_1109_capi.obj
 0002:00001094       ??_C@_0CI@GELOMNMJ@IO601?1CANSend?1GetState?5?$CIonce?$CJ?1Co@ 10016094     testmodel_1109_capi.obj
 0002:000010bc       ??_C@_0CI@EPJDJOAK@IO601?1CANSend?1GetState?5?$CIonce?$CJ?1Co@ 100160bc     testmodel_1109_capi.obj
 0002:000010e4       ??_C@_0BH@KFBHEICM@IO601?1ReadQueueSS?1STOP?$AA@ 100160e4     testmodel_1109_capi.obj
 0002:000010fc       ??_C@_0BG@HKHKLBBJ@IO601?1ReadQueueSS?1vel?$AA@ 100160fc     testmodel_1109_capi.obj
 0002:00001114       ??_C@_0O@LILIEJBO@InitialOutput?$AA@ 10016114     testmodel_1109_capi.obj
 0002:00001124       ??_C@_0BG@JPNMGFIN@IO601?1ReadQueueSS?1pos?$AA@ 10016124     testmodel_1109_capi.obj
 0002:0000113c       ??_C@_0BP@MPHBHALB@IO601?1DefaultConfig?1Write?5?$CIv3?$CJ?$AA@ 1001613c     testmodel_1109_capi.obj
 0002:0000115c       ??_C@_0BO@FIGKIEHE@IO601?1DefaultConfig?1Constant6?$AA@ 1001615c     testmodel_1109_capi.obj
 0002:0000117c       ??_C@_0BO@HDEHNHLH@IO601?1DefaultConfig?1Constant5?$AA@ 1001617c     testmodel_1109_capi.obj
 0002:0000119c       ??_C@_0BO@GKFMOGPG@IO601?1DefaultConfig?1Constant4?$AA@ 1001619c     testmodel_1109_capi.obj
 0002:000011bc       ??_C@_0BO@CFBNHADB@IO601?1DefaultConfig?1Constant3?$AA@ 100161bc     testmodel_1109_capi.obj
 0002:000011dc       ??_C@_0BO@DMAGEBHA@IO601?1DefaultConfig?1Constant2?$AA@ 100161dc     testmodel_1109_capi.obj
 0002:000011fc       ??_C@_0BO@BHCLBCLD@IO601?1DefaultConfig?1Constant1?$AA@ 100161fc     testmodel_1109_capi.obj
 0002:0000121c       ??_C@_0BP@EPHIABFG@IO601?1Compare?5To?5Zero?1Constant?$AA@ 1001621c     testmodel_1109_capi.obj
 0002:0000123c       ??_C@_0BK@EACJAMNO@IO601?1CANSend?1Write?5?$CIv3?$CJ1?$AA@ 1001623c     testmodel_1109_capi.obj
 0002:00001258       ??_C@_0BH@IOBDCJHG@IO601?1CANSend?1SendStop?$AA@ 10016258     testmodel_1109_capi.obj
 0002:00001270       ??_C@_0BC@EDCEHLKH@IO601?1CANSend?1Cur?$AA@ 10016270     testmodel_1109_capi.obj
 0002:00001284       ??_C@_05CLADCAAM@After?$AA@ 10016284     testmodel_1109_capi.obj
 0002:0000128c       ??_C@_06NDPGJMFM@Before?$AA@ 1001628c     testmodel_1109_capi.obj
 0002:00001294       ??_C@_04OKOFBOPB@Time?$AA@ 10016294     testmodel_1109_capi.obj
 0002:0000129c       ??_C@_03PGECKHFE@P11?$AA@  1001629c     testmodel_1109_capi.obj
 0002:000012a0       ??_C@_03OPFJJGBF@P10?$AA@  100162a0     testmodel_1109_capi.obj
 0002:000012a4       ??_C@_02GCIGIFOH@P9?$AA@   100162a4     testmodel_1109_capi.obj
 0002:000012a8       ??_C@_02HLJNLEKG@P8?$AA@   100162a8     testmodel_1109_capi.obj
 0002:000012ac       ??_C@_0BB@PGJCMMJJ@IO601?1Setup?5?$CIv3?$CJ?$AA@ 100162ac     testmodel_1109_capi.obj
 0002:000012c0       ??_C@_02PMAFKIGJ@P7?$AA@   100162c0     testmodel_1109_capi.obj
 0002:000012c4       ??_C@_02OFBOJJCI@P6?$AA@   100162c4     testmodel_1109_capi.obj
 0002:000012c8       ??_C@_02MODDMKOL@P5?$AA@   100162c8     testmodel_1109_capi.obj
 0002:000012cc       ??_C@_02NHCIPLKK@P4?$AA@   100162cc     testmodel_1109_capi.obj
 0002:000012d0       ??_C@_02JIGJGNGN@P3?$AA@   100162d0     testmodel_1109_capi.obj
 0002:000012d4       ??_C@_02IBHCFMCM@P2?$AA@   100162d4     testmodel_1109_capi.obj
 0002:000012d8       ??_C@_02KKFPAPOP@P1?$AA@   100162d8     testmodel_1109_capi.obj
 0002:000012dc       ??_C@_0BA@KCDIBHOF@IO601?1Read?5?$CIv3?$CJ?$AA@ 100162dc     testmodel_1109_capi.obj
 0002:000012ec       ??_C@_02LNFHGPBG@X0?$AA@   100162ec     testmodel_1109_capi.obj
 0002:000012f0       ??_C@_0L@JNLMCMDB@PhaseDelay?$AA@ 100162f0     testmodel_1109_capi.obj
 0002:000012fc       ??_C@_0L@HCJBDGGO@PulseWidth?$AA@ 100162fc     testmodel_1109_capi.obj
 0002:00001308       ??_C@_06JOFJHOEH@Period?$AA@ 10016308     testmodel_1109_capi.obj
 0002:00001310       ??_C@_09IHLJOMI@Amplitude?$AA@ 10016310     testmodel_1109_capi.obj
 0002:0000131c       ??_C@_0BB@CFEOEMDC@InitialCondition?$AA@ 1001631c     testmodel_1109_capi.obj
 0002:00001330       ??_C@_05LPIJGKJ@Value?$AA@ 10016330     testmodel_1109_capi.obj
 0002:00001338       ??_C@_0O@NECEMAHJ@IO601?1SendOut?$AA@ 10016338     testmodel_1109_capi.obj
 0002:00001348       ??_C@_06CFNEEADJ@U?$CIk?91?$CJ?$AA@ 10016348     testmodel_1109_capi.obj
 0002:00001350       ??_C@_0DI@NKODGCED@IO601?1ReadQueueSS?1CountACK?1Detec@ 10016350     testmodel_1109_capi.obj
 0002:00001388       ??_C@_0EF@EHIPKJNJ@IO601?1ReadQueueSS?1CountACK?1Detec@ 10016388     testmodel_1109_capi.obj
 0002:000013d0       ??_C@_0CH@KFMABKOF@IO601?1ReadQueueSS?1CountACK?1Count@ 100163d0     testmodel_1109_capi.obj
 0002:000013f8       ??_C@_0CK@MBJJCPDL@IO601?1J?9K?5Flip?9Flop1?1J?9K?5Flip?9Fl@ 100163f8     testmodel_1109_capi.obj
 0002:00001424       ??_C@_0CJ@GIOOCNGE@IO601?1J?9K?5Flip?9Flop1?1J?9K?5Flip?9Fl@ 10016424     testmodel_1109_capi.obj
 0002:00001450       ??_C@_0CE@PMCFDNCF@IO601?1Initialize?1QuitError?1CAN?5P@ 10016450     testmodel_1109_capi.obj
 0002:00001474       ??_C@_0CF@FFPAEFDF@IO601?1Initialize?1QuitError?1Const@ 10016474     testmodel_1109_capi.obj
 0002:0000149c       ??_C@_0CK@BLPPNFHO@IO601?1Initialize?1InitialPosition@ 1001649c     testmodel_1109_capi.obj
 0002:000014c8       ??_C@_0CK@EDGHPCNG@IO601?1Initialize?1InitialPosition@ 100164c8     testmodel_1109_capi.obj
 0002:000014f4       ??_C@_0CI@KAIPLBJP@IO601?1Initialize?1GetState?$CIms?$CJ?1CA@ 100164f4     testmodel_1109_capi.obj
 0002:0000151c       ??_C@_0CI@FDPHFBKB@IO601?1Initialize?1GetState?$CIms?$CJ?1Co@ 1001651c     testmodel_1109_capi.obj
 0002:00001544       ??_C@_0BP@BMECKJAG@IO601?1CANSend?1movVel?1CAN?5Pack2?$AA@ 10016544     testmodel_1109_capi.obj
 0002:00001564       ??_C@_0BP@DHGPPKMF@IO601?1CANSend?1movVel?1CAN?5Pack1?$AA@ 10016564     testmodel_1109_capi.obj
 0002:00001584       ??_C@_0CB@KFFMMOEI@IO601?1CANSend?1movVel?1TC?5UI32?9UI8@ 10016584     testmodel_1109_capi.obj
 0002:000015a8       ??_C@_0CJ@NJHCKNBO@IO601?1CANSend?1movVel?1MATLAB?5Func@ 100165a8     testmodel_1109_capi.obj
 0002:000015d4       ??_C@_0CJ@PCFPPONN@IO601?1CANSend?1movVel?1MATLAB?5Func@ 100165d4     testmodel_1109_capi.obj
 0002:00001600       ??_C@_0BN@LENAFBFL@IO601?1CANSend?1STOP?1CAN?5Pack2?$AA@ 10016600     testmodel_1109_capi.obj
 0002:00001620       ??_C@_0CI@NIIHLLDA@IO601?1CANSend?1GetState?5?$CIonce?$CJ?1CA@ 10016620     testmodel_1109_capi.obj
 0002:00001648       ??_C@_0BN@FEICFPIA@IO601?1ReadQueueSS?1ReadACK?1p4?$AA@ 10016648     testmodel_1109_capi.obj
 0002:00001668       ??_C@_0BN@BLMDMJEH@IO601?1ReadQueueSS?1ReadACK?1p3?$AA@ 10016668     testmodel_1109_capi.obj
 0002:00001688       ??_C@_0BN@CNIPIAG@IO601?1ReadQueueSS?1ReadACK?1p2?$AA@ 10016688     testmodel_1109_capi.obj
 0002:000016a8       ??_C@_0BN@CJPFKLMF@IO601?1ReadQueueSS?1ReadACK?1p1?$AA@ 100166a8     testmodel_1109_capi.obj
 0002:000016c8       ??_C@_0BO@HPPONEOI@IO601?1ReadQueueSS?1CAN?5Unpack3?$AA@ 100166c8     testmodel_1109_capi.obj
 0002:000016e8       ??_C@_0BO@GGOFOFKJ@IO601?1ReadQueueSS?1CAN?5Unpack2?$AA@ 100166e8     testmodel_1109_capi.obj
 0002:00001708       ??_C@_0BP@OKHENNHE@IO601?1ReadQueueSS?1Index?5Vector?$AA@ 10016708     testmodel_1109_capi.obj
 0002:00001728       ??_C@_0BP@HNMPHBGD@IO601?1ReadQueueSS?1For?5Iterator?$AA@ 10016728     testmodel_1109_capi.obj
 0002:00001748       ??_C@_0CD@IJJLICEO@IO601?1ReadQueueSS?1MATLAB?5Functio@ 10016748     testmodel_1109_capi.obj
 0002:0000176c       ??_C@_0BH@NNPFPPJJ@IO601?1Initialize?1Step3?$AA@ 1001676c     testmodel_1109_capi.obj
 0002:00001784       ??_C@_0BH@OPMDJNBL@IO601?1Initialize?1Step1?$AA@ 10016784     testmodel_1109_capi.obj
 0002:0000179c       ??_C@_0BG@EHFDDBHJ@IO601?1Initialize?1Step?$AA@ 1001679c     testmodel_1109_capi.obj
 0002:000017b4       ??_C@_0BO@MPHOKBEO@IO601?1DefaultConfig?1CAN?5Pack1?$AA@ 100167b4     testmodel_1109_capi.obj
 0002:000017d4       ??_C@_0BN@JFOKNHAM@IO601?1DefaultConfig?1CAN?5Pack?$AA@ 100167d4     testmodel_1109_capi.obj
 0002:000017f4       ??_C@_0BN@MNHCPAKE@IO601?1DefaultConfig?1Constant?$AA@ 100167f4     testmodel_1109_capi.obj
 0002:00001814       ??_C@_0BO@KLPMNKLH@IO601?1Compare?5To?5Zero?1Compare?$AA@ 10016814     testmodel_1109_capi.obj
 0002:00001834       ??_C@_0BG@CPGPAGCK@IO601?1CANSend?1Product?$AA@ 10016834     testmodel_1109_capi.obj
 0002:0000184c       ??_C@_0M@CLGOOAGC@IO601?1Step5?$AA@ 1001684c     testmodel_1109_capi.obj
 0002:00001858       ??_C@_0M@DCHFNBCD@IO601?1Step4?$AA@ 10016858     testmodel_1109_capi.obj
 0002:00001864       ??_C@_0BB@CHPKDDFL@IO601?1Write?5?$CIv3?$CJ?$AA@ 10016864     testmodel_1109_capi.obj
 0002:00001878       ??_C@_0BD@MDHIKNKI@IO601?1Read?5?$CIv3?$CJ?1p2?$AA@ 10016878     testmodel_1109_capi.obj
 0002:0000188c       ??_C@_0BD@OIFFPOGL@IO601?1Read?5?$CIv3?$CJ?1p1?$AA@ 1001688c     testmodel_1109_capi.obj
 0002:000018a0       ??_C@_0P@LDBKBOAO@IO601?1Product2?$AA@ 100168a0     testmodel_1109_capi.obj
 0002:000018b0       ??_C@_0P@JIDHENMN@IO601?1Product1?$AA@ 100168b0     testmodel_1109_capi.obj
 0002:000018c0       ??_C@_0O@LELDHBHI@IO601?1Product?$AA@ 100168c0     testmodel_1109_capi.obj
 0002:000018d0       ??_C@_0N@OPNOANML@IO601?1Memory?$AA@ 100168d0     testmodel_1109_capi.obj
 0002:000018e0       ??_C@_0BG@PAKNPIGK@IO601?1Pulse?5Generator?$AA@ 100168e0     testmodel_1109_capi.obj
 0002:000018f8       ??_C@_0BP@OIHNNGJH@IO601?1Discrete?9Time?5Integrator?$AA@ 100168f8     testmodel_1109_capi.obj
 0002:00001918       ??_C@_0BM@OEOKMLN@IO601?1Data?5Type?5Conversion4?$AA@ 10016918     testmodel_1109_capi.obj
 0002:00001934       ??_C@_0BM@EBAPDKHK@IO601?1Data?5Type?5Conversion3?$AA@ 10016934     testmodel_1109_capi.obj
 0002:00002be8       _serialfifoground          10017be8     xpc_datatype_ground.obj
 0002:00002bf4       _bcmsg1553ground           10017bf4     xpc_datatype_ground.obj
 0002:00002c04       _bcstatground              10017c04     xpc_datatype_ground.obj
 0002:00002c1c       _bmmsg1553ground           10017c1c     xpc_datatype_ground.obj
 0002:00002c2c       ??_C@_0P@OBNPAIIM@testmodel_1109?$AA@ 10017c2c     xpctarget.obj
 0002:00002c40       _ptsetfilename             10017c40     xpctarget.obj
 0002:00002c48       _testmodel_1109_BIO        10017c48     xpctarget.obj
 0002:00002ed0       _testmodel_1109_LBL        10017ed0     xpctarget.obj
 0002:00003158       _testmodel_1109_SID        10018158     xpctarget.obj
 0002:000033e0       _xpcMMI                    100183e0     xpctarget.obj
 0002:00003400       _testmodel_1109_PT         10018400     xpctarget.obj
 0002:00003628       _xpcparamsMMI              10018628     xpctarget.obj
 0002:00003640       _xmlfile                   10018640     xpctarget.obj
 0002:00003648       ??_C@_0L@CHBJKKFC@xpceSetVar?$AA@ 10018648     xpctarget.obj
 0002:00003658       __real@3fb999999999999a    10018658     xpctarget.obj
 0002:00003660       ??_C@_03MNEDIJEE@6?43?$AA@ 10018660     xpctarget.obj
 0002:00003668       ??_C@_0ED@LKHIFFLC@Wrong?5number?5of?5input?5arguments?5@ 10018668     sg_IO601_write_s_3.obj
 0002:000036ac       ??_C@_0CI@NFFNBHJA@?$CFs?5?$CIbus?5?$CFd?0?5slot?5?$CFd?$CJ?3?5board?5not?5@ 100186ac     sg_IO601_write_s_3.obj
 0002:000036d4       ??_C@_0BA@PEEBPDNK@Speedgoat?5IO601?$AA@ 100186d4     sg_IO601_write_s_3.obj
 0002:000036e8       __real@3fa999999999999a    100186e8     sg_IO601_setup_s_3.obj
 0002:000036f0       ??_C@_0CC@JOAAOKEM@?$CFs?3?5Failed?5to?5start?5CAN?5on?5port?5@ 100186f0     sg_IO601_setup_s_3.obj
 0002:00003714       ??_C@_0CJ@GOBCKFJL@?$CFs?3?5Failed?5to?5configure?5RX?5queue@ 10018714     sg_IO601_setup_s_3.obj
 0002:00003740       ??_C@_0CM@NKLCILNM@Failed?5to?5set?5EXT?5acceptance?5mas@ 10018740     sg_IO601_setup_s_3.obj
 0002:0000376c       ??_C@_0CM@DBIFDANP@Failed?5to?5set?5EXT?5acceptance?5mas@ 1001876c     sg_IO601_setup_s_3.obj
 0002:00003798       ??_C@_0DA@FAJCIGJF@?$CFs?3?5Failed?5to?5set?5STD?5acceptance@ 10018798     sg_IO601_setup_s_3.obj
 0002:000037c8       ??_C@_0DA@LLKFDNJG@?$CFs?3?5Failed?5to?5set?5STD?5acceptance@ 100187c8     sg_IO601_setup_s_3.obj
 0002:000037f8       ??_C@_0BJ@PGMEJPIO@?$CFs?3?5Failed?5to?5init?5CAN?52?$AA@ 100187f8     sg_IO601_setup_s_3.obj
 0002:00003814       ??_C@_0CC@CCDBKGEL@initialize?5Speedgoat?5IO601?5CAN?52@ 10018814     sg_IO601_setup_s_3.obj
 0002:00003838       ??_C@_0CC@LFCNLJIP@?$CFs?3?5Failed?5to?5start?5CAN?5on?5port?5@ 10018838     sg_IO601_setup_s_3.obj
 0002:0000385c       ??_C@_0CJ@GMFEBLMC@?$CFs?3?5Failed?5to?5configure?5RX?5queue@ 1001885c     sg_IO601_setup_s_3.obj
 0002:00003888       ??_C@_0CM@NIPEDFIF@Failed?5to?5set?5EXT?5acceptance?5mas@ 10018888     sg_IO601_setup_s_3.obj
 0002:000038b4       ??_C@_0CM@DDMDIOIG@Failed?5to?5set?5EXT?5acceptance?5mas@ 100188b4     sg_IO601_setup_s_3.obj
 0002:000038e0       ??_C@_0DA@FCNEDIMM@?$CFs?3?5Failed?5to?5set?5STD?5acceptance@ 100188e0     sg_IO601_setup_s_3.obj
 0002:00003910       ??_C@_0DA@LJODIDMP@?$CFs?3?5Failed?5to?5set?5STD?5acceptance@ 10018910     sg_IO601_setup_s_3.obj
 0002:00003940       ??_C@_0BJ@NNOJMMEN@?$CFs?3?5Failed?5to?5init?5CAN?51?$AA@ 10018940     sg_IO601_setup_s_3.obj
 0002:0000395c       ??_C@_0CC@CAHHBIBC@initialize?5Speedgoat?5IO601?5CAN?51@ 1001895c     sg_IO601_setup_s_3.obj
 0002:00003980       ??_C@_0BI@ODAKADLH@?$CFs?3?5wrong?5firmware?5?$CI?$CFs?$CJ?$AA@ 10018980     sg_IO601_setup_s_3.obj
 0002:00003998       ??_C@_04BPKHPNPF@4?418?$AA@ 10018998     sg_IO601_setup_s_3.obj
 0002:000039a0       ??_C@_04JKHJFPGD@4?427?$AA@ 100189a0     sg_IO601_setup_s_3.obj
 0002:000039a8       ??_C@_0CE@JCCAPNGC@IO601?3?5Failed?5to?5stop?5CAN?5on?5por@ 100189a8     sg_IO601_setup_s_3.obj
 0002:000039cc       ??_C@_0CE@LJANKOKB@IO601?3?5Failed?5to?5stop?5CAN?5on?5por@ 100189cc     sg_IO601_setup_s_3.obj
 0002:000039f0       ??_C@_0CF@PNCKPEHN@sendToAsyncQueueTgtAppSvc?5not?5fo@ 100189f0     xpcruntime:xpcimports.obj
 0002:00003a18       ??_C@_0BK@IDACEHAO@sendToAsyncQueueTgtAppSvc?$AA@ 10018a18     xpcruntime:xpcimports.obj
 0002:00003a34       ??_C@_0CK@NDEMAMKF@terminateToAsyncQueueTgtAppSvc?5n@ 10018a34     xpcruntime:xpcimports.obj
 0002:00003a60       ??_C@_0BP@IJNGPPPE@terminateToAsyncQueueTgtAppSvc?$AA@ 10018a60     xpcruntime:xpcimports.obj
 0002:00003a80       ??_C@_0CG@JGOFFKEL@startToAsyncQueueTgtAppSvc?5not?5f@ 10018a80     xpcruntime:xpcimports.obj
 0002:00003aa8       ??_C@_0BL@CDFCLKOL@startToAsyncQueueTgtAppSvc?$AA@ 10018aa8     xpcruntime:xpcimports.obj
 0002:00003ac4       ??_C@_0BK@NEKDLJHG@getStatusFlags?5not?5found?6?$AA@ 10018ac4     xpcruntime:xpcimports.obj
 0002:00003ae0       ??_C@_0P@GDLHFECE@getStatusFlags?$AA@ 10018ae0     xpcruntime:xpcimports.obj
 0002:00003af0       ??_C@_0BK@NCECBKNM@getCommService?5not?5found?6?$AA@ 10018af0     xpcruntime:xpcimports.obj
 0002:00003b0c       ??_C@_0P@KIKONDKK@getCommService?$AA@ 10018b0c     xpcruntime:xpcimports.obj
 0002:00003b1c       ??_C@_0BM@MPLCNIIE@getMemoryService?5not?5found?6?$AA@ 10018b1c     xpcruntime:xpcimports.obj
 0002:00003b38       ??_C@_0BB@LCMHHHFN@getMemoryService?$AA@ 10018b38     xpcruntime:xpcimports.obj
 0002:00003b4c       ??_C@_0BI@NHJNFMKH@xpceaddEvent?5not?5found?6?$AA@ 10018b4c     xpcruntime:xpcimports.obj
 0002:00003b64       ??_C@_0N@IGGLCIGE@xpceaddEvent?$AA@ 10018b64     xpcruntime:xpcimports.obj
 0002:00003b74       ??_C@_0BH@OINCDMLA@StreamVideo?5not?5found?6?$AA@ 10018b74     xpcruntime:xpcimports.obj
 0002:00003b8c       ??_C@_0M@MFJEGMHC@StreamVideo?$AA@ 10018b8c     xpcruntime:xpcimports.obj
 0002:00003b98       ??_C@_0BM@DBJBPLEL@StopVideoDisplay?5not?5found?6?$AA@ 10018b98     xpcruntime:xpcimports.obj
 0002:00003bb4       ??_C@_0BB@JBBLMILG@StopVideoDisplay?$AA@ 10018bb4     xpcruntime:xpcimports.obj
 0002:00003bc8       ??_C@_0BN@EFIEBGOO@StartVideoDisplay?5not?5found?6?$AA@ 10018bc8     xpcruntime:xpcimports.obj
 0002:00003be8       ??_C@_0BC@HCMIMIDN@StartVideoDisplay?$AA@ 10018be8     xpcruntime:xpcimports.obj
 0002:00003bfc       ??_C@_0BP@FMGLJAIJ@DestroyVideoDisplay?5not?5found?6?$AA@ 10018bfc     xpcruntime:xpcimports.obj
 0002:00003c1c       ??_C@_0BE@KJCKGPHA@DestroyVideoDisplay?$AA@ 10018c1c     xpcruntime:xpcimports.obj
 0002:00003c30       ??_C@_0BO@HPPLLNFP@CreateVideoDisplay?5not?5found?6?$AA@ 10018c30     xpcruntime:xpcimports.obj
 0002:00003c50       ??_C@_0BD@NKCBPBJJ@CreateVideoDisplay?$AA@ 10018c50     xpcruntime:xpcimports.obj
 0002:00003c64       ??_C@_0BJ@PHJKOAFL@ConvertUImage?5not?5found?6?$AA@ 10018c64     xpcruntime:xpcimports.obj
 0002:00003c80       ??_C@_0O@MCPKDLLL@ConvertUImage?$AA@ 10018c80     xpcruntime:xpcimports.obj
 0002:00003c90       ??_C@_0BF@NKGKKADL@StopVideo?5not?5found?6?$AA@ 10018c90     xpcruntime:xpcimports.obj
 0002:00003ca8       ??_C@_09FAHCLKAG@StopVideo?$AA@ 10018ca8     xpcruntime:xpcimports.obj
 0002:00003cb4       ??_C@_0BL@JHGHPNBI@ReadFrameBuffer?5not?5found?6?$AA@ 10018cb4     xpcruntime:xpcimports.obj
 0002:00003cd0       ??_C@_0BA@FDNPOCLN@ReadFrameBuffer?$AA@ 10018cd0     xpcruntime:xpcimports.obj
 0002:00003ce0       ??_C@_0BG@HDCELEBP@StartVideo?5not?5found?6?$AA@ 10018ce0     xpcruntime:xpcimports.obj
 0002:00003cf8       ??_C@_0L@GBAEMHMH@StartVideo?$AA@ 10018cf8     xpcruntime:xpcimports.obj
 0002:00003d04       ??_C@_0BL@DALDHKHC@GetVideoConfigs?5not?5found?6?$AA@ 10018d04     xpcruntime:xpcimports.obj
 0002:00003d20       ??_C@_0BA@PLPAPNAB@GetVideoConfigs?$AA@ 10018d20     xpcruntime:xpcimports.obj
 0002:00003d30       ??_C@_0BO@POKLDHMI@FindUsbVideoDevice?5not?5found?6?$AA@ 10018d30     xpcruntime:xpcimports.obj
 0002:00003d50       ??_C@_0BD@MFNDMBOF@FindUsbVideoDevice?$AA@ 10018d50     xpcruntime:xpcimports.obj
 0002:00003d64       ??_C@_0BP@OFNCKOJH@xpceDeleteSemaphore?5not?5found?6?$AA@ 10018d64     xpcruntime:xpcimports.obj
 0002:00003d84       ??_C@_0BE@MEBEKOIM@xpceDeleteSemaphore?$AA@ 10018d84     xpcruntime:xpcimports.obj
 0002:00003d98       ??_C@_0BP@LBANMHJP@xpceSignalSemaphore?5not?5found?6?$AA@ 10018d98     xpcruntime:xpcimports.obj
 0002:00003db8       ??_C@_0BE@NNDIOBKE@xpceSignalSemaphore?$AA@ 10018db8     xpcruntime:xpcimports.obj
 0002:00003dcc       ??_C@_0BN@NMFAADIO@xpceWaitSemaphore?5not?5found?6?$AA@ 10018dcc     xpcruntime:xpcimports.obj
 0002:00003dec       ??_C@_0BC@IFNIONKJ@xpceWaitSemaphore?$AA@ 10018dec     xpcruntime:xpcimports.obj
 0002:00003e00       ??_C@_0BP@KFBAFFKJ@xpceCreateSemaphore?5not?5found?6?$AA@ 10018e00     xpcruntime:xpcimports.obj
 0002:00003e20       ??_C@_0BE@IIGBFDHK@xpceCreateSemaphore?$AA@ 10018e20     xpcruntime:xpcimports.obj
 0002:00003e34       ??_C@_0BK@KGPJBJND@TBGiveSpinFast?5not?5found?6?$AA@ 10018e34     xpcruntime:xpcimports.obj
 0002:00003e50       ??_C@_0P@FKNAAELA@TBGiveSpinFast?$AA@ 10018e50     xpcruntime:xpcimports.obj
 0002:00003e60       ??_C@_0BK@NKAIBHGB@TBTakeSpinFast?5not?5found?6?$AA@ 10018e60     xpcruntime:xpcimports.obj
 0002:00003e7c       ??_C@_0P@DAHDDBJG@TBTakeSpinFast?$AA@ 10018e7c     xpcruntime:xpcimports.obj
 0002:00003e8c       ??_C@_0BI@BKCPAAG@TBDeleteSpin?5not?5found?6?$AA@ 10018e8c     xpcruntime:xpcimports.obj
 0002:00003ea4       ??_C@_0N@HOAJHNBD@TBDeleteSpin?$AA@ 10018ea4     xpcruntime:xpcimports.obj
 0002:00003eb4       ??_C@_0BI@FHKMLKOE@TBCreateSpin?5not?5found?6?$AA@ 10018eb4     xpcruntime:xpcimports.obj
 0002:00003ecc       ??_C@_0N@LKKJEKKA@TBCreateSpin?$AA@ 10018ecc     xpcruntime:xpcimports.obj
 0002:00003edc       ??_C@_0BH@FBOPECBI@xpcBusyWait?5not?5found?6?$AA@ 10018edc     xpcruntime:xpcimports.obj
 0002:00003ef4       ??_C@_0M@ICBLMODA@xpcBusyWait?$AA@ 10018ef4     xpcruntime:xpcimports.obj
 0002:00003f00       ??_C@_0BN@OEOAHCIO@xpcGetElapsedTime?5not?5found?6?$AA@ 10018f00     xpcruntime:xpcimports.obj
 0002:00003f20       ??_C@_0BC@JGKNLICL@xpcGetElapsedTime?$AA@ 10018f20     xpcruntime:xpcimports.obj
 0002:00003f34       ??_C@_0CB@PKJEBPOG@xpcFreePhysicalMemory?5not?5found?6@ 10018f34     xpcruntime:xpcimports.obj
 0002:00003f58       ??_C@_0BG@CBNPGAEL@xpcFreePhysicalMemory?$AA@ 10018f58     xpcruntime:xpcimports.obj
 0002:00003f70       ??_C@_0CC@MOJPNHKL@xpcAllocPhysicalMemory?5not?5found@ 10018f70     xpcruntime:xpcimports.obj
 0002:00003f94       ??_C@_0BH@KJJLCAOJ@xpcAllocPhysicalMemory?$AA@ 10018f94     xpcruntime:xpcimports.obj
 0002:00003fac       ??_C@_0BK@DHEMLBIM@xpcIsModelInit?5not?5found?6?$AA@ 10018fac     xpcruntime:xpcimports.obj
 0002:00003fc8       ??_C@_0P@OKGNGAGH@xpcIsModelInit?$AA@ 10018fc8     xpcruntime:xpcimports.obj
 0002:00003fd8       ??_C@_0BI@FHPFHECO@xpceUDPClose?5not?5found?6?$AA@ 10018fd8     xpcruntime:xpcimports.obj
 0002:00003ff0       ??_C@_0N@IEHPMFME@xpceUDPClose?$AA@ 10018ff0     xpcruntime:xpcimports.obj
 0002:00004000       ??_C@_0BK@OPJMLDLH@xpceUDPReceive?5not?5found?6?$AA@ 10019000     xpcruntime:xpcimports.obj
 0002:0000401c       ??_C@_0P@PLFDECIN@xpceUDPReceive?$AA@ 1001901c     xpcruntime:xpcimports.obj
 0002:0000402c       ??_C@_0BH@NOIKLPAB@xpceUDPSend?5not?5found?6?$AA@ 1001902c     xpcruntime:xpcimports.obj
 0002:00004044       ??_C@_0M@OFPFLJGN@xpceUDPSend?$AA@ 10019044     xpcruntime:xpcimports.obj
 0002:00004050       ??_C@_0BO@IFKJBHKC@xpceUDPOpenReceive?5not?5found?6?$AA@ 10019050     xpcruntime:xpcimports.obj
 0002:00004070       ??_C@_0BD@BCELJJJL@xpceUDPOpenReceive?$AA@ 10019070     xpcruntime:xpcimports.obj
 0002:00004084       ??_C@_0BL@HNLPFEK@xpceUDPOpenSend?5not?5found?6?$AA@ 10019084     xpcruntime:xpcimports.obj
 0002:000040a0       ??_C@_0BA@FHMIOKFL@xpceUDPOpenSend?$AA@ 100190a0     xpcruntime:xpcimports.obj
 0002:000040b0       ??_C@_0BG@HNOFBOB@xpceGetTET?5not?5found?6?$AA@ 100190b0     xpcruntime:xpcimports.obj
 0002:000040c8       ??_C@_0L@OCBLLHBM@xpceGetTET?$AA@ 100190c8     xpcruntime:xpcimports.obj
 0002:000040d4       ??_C@_0BM@OABDBKAO@xpceGetParamDims?5not?5found?6?$AA@ 100190d4     xpcruntime:xpcimports.obj
 0002:000040f0       ??_C@_0BB@CEIJLFCD@xpceGetParamDims?$AA@ 100190f0     xpcruntime:xpcimports.obj
 0002:00004104       ??_C@_0BM@POHNKBC@xpceGetParameter?5not?5found?6?$AA@ 10019104     xpcruntime:xpcimports.obj
 0002:00004120       ??_C@_0BB@GNFDFMCM@xpceGetParameter?$AA@ 10019120     xpcruntime:xpcimports.obj
 0002:00004134       ??_C@_0BM@BJIKDLHA@xpceSetParameter?5not?5found?6?$AA@ 10019134     xpcruntime:xpcimports.obj
 0002:00004150       ??_C@_0BB@BJONJAGA@xpceSetParameter?$AA@ 10019150     xpcruntime:xpcimports.obj
 0002:00004164       ??_C@_0BO@GCBDJHMB@xpceGetSignalValue?5not?5found?6?$AA@ 10019164     xpcruntime:xpcimports.obj
 0002:00004184       ??_C@_0BD@PCKOKHO@xpceGetSignalValue?$AA@ 10019184     xpcruntime:xpcimports.obj
 0002:00004198       ??_C@_0BK@KNBNFIKH@rl32eSendBlock?5not?5found?6?$AA@ 10019198     xpcruntime:xpcimports.obj
 0002:000041b4       ??_C@_0P@MDMKIJF@rl32eSendBlock?$AA@ 100191b4     xpcruntime:xpcimports.obj
 0002:000041c4       ??_C@_0BL@PLIDKKGI@rl32eLineStatus?5not?5found?6?$AA@ 100191c4     xpcruntime:xpcimports.obj
 0002:000041e0       ??_C@_0BA@CFIJOJPK@rl32eLineStatus?$AA@ 100191e0     xpcruntime:xpcimports.obj
 0002:000041f0       ??_C@_0CD@LNMOFLAH@rl32eReceiveBufferCount?5not?5foun@ 100191f0     xpcruntime:xpcimports.obj
 0002:00004214       ??_C@_0BI@PKEJFHMJ@rl32eReceiveBufferCount?$AA@ 10019214     xpcruntime:xpcimports.obj
 0002:0000422c       ??_C@_0BM@HGAIOAND@rl32eReceiveChar?5not?5found?6?$AA@ 1001922c     xpcruntime:xpcimports.obj
 0002:00004248       ??_C@_0BB@OMFKCOEK@rl32eReceiveChar?$AA@ 10019248     xpcruntime:xpcimports.obj
 0002:0000425c       ??_C@_0BJ@JCJKDACJ@rl32eSendChar?5not?5found?6?$AA@ 1001925c     xpcruntime:xpcimports.obj
 0002:00004278       ??_C@_0O@LLJGKFOG@rl32eSendChar?$AA@ 10019278     xpcruntime:xpcimports.obj
 0002:00004288       ??_C@_0BN@KCOFELEM@rl32eCloseCOMPort?5not?5found?6?$AA@ 10019288     xpcruntime:xpcimports.obj
 0002:000042a8       ??_C@_0BC@CHEEFCP@rl32eCloseCOMPort?$AA@ 100192a8     xpcruntime:xpcimports.obj
 0002:000042bc       ??_C@_0BM@DDJGKAHB@rl32eInitCOMPort?5not?5found?6?$AA@ 100192bc     xpcruntime:xpcimports.obj
 0002:000042d8       ??_C@_0BB@FCHHFAAH@rl32eInitCOMPort?$AA@ 100192d8     xpcruntime:xpcimports.obj
 0002:000042ec       ??_C@_0CC@CDNDNJBJ@xpceAssignPCIInterrupt?5not?5found@ 100192ec     xpcruntime:xpcimports.obj
 0002:00004310       ??_C@_0BH@OKBOPNFG@xpceAssignPCIInterrupt?$AA@ 10019310     xpcruntime:xpcimports.obj
 0002:00004328       ??_C@_0CB@BBKIPMLA@rl32eGetPCIInfoAtSlot?5not?5found?6@ 10019328     xpcruntime:xpcimports.obj
 0002:0000434c       ??_C@_0BG@NJPFKFDP@rl32eGetPCIInfoAtSlot?$AA@ 1001934c     xpcruntime:xpcimports.obj
 0002:00004364       ??_C@_0BL@IGOMLDCK@rl32eGetPCIInfo?5not?5found?6?$AA@ 10019364     xpcruntime:xpcimports.obj
 0002:00004380       ??_C@_0BA@BGPAADB@rl32eGetPCIInfo?$AA@ 10019380     xpcruntime:xpcimports.obj
 0002:00004390       ??_C@_0BM@IFDMAGLO@rl32eShowPCIInfo?5not?5found?6?$AA@ 10019390     xpcruntime:xpcimports.obj
 0002:000043ac       ??_C@_0BB@KBCOJPFB@rl32eShowPCIInfo?$AA@ 100193ac     xpcruntime:xpcimports.obj
 0002:000043c0       ??_C@_0BL@DDFFLNHI@rl32eShowPCIDev?5not?5found?6?$AA@ 100193c0     xpcruntime:xpcimports.obj
 0002:000043dc       ??_C@_0BA@JGPMHGAF@rl32eShowPCIDev?$AA@ 100193dc     xpcruntime:xpcimports.obj
 0002:000043ec       ??_C@_0CC@KAAAGPI@xpcReserveMemoryRegion?5not?5found@ 100193ec     xpcruntime:xpcimports.obj
 0002:00004410       ??_C@_0BH@EHOLELHH@xpcReserveMemoryRegion?$AA@ 10019410     xpcruntime:xpcimports.obj
 0002:00004428       ??_C@_0BF@GJKLPNHB@xpcOutpDW?5not?5found?6?$AA@ 10019428     xpcruntime:xpcimports.obj
 0002:00004440       ??_C@_09FLIEKHJG@xpcOutpDW?$AA@ 10019440     xpcruntime:xpcimports.obj
 0002:0000444c       ??_C@_0BE@NLIFDBGM@xpcOutpW?5not?5found?6?$AA@ 1001944c     xpcruntime:xpcimports.obj
 0002:00004460       ??_C@_08MOOJAOHK@xpcOutpW?$AA@ 10019460     xpcruntime:xpcimports.obj
 0002:0000446c       ??_C@_0BE@HCKNCEKF@xpcOutpB?5not?5found?6?$AA@ 1001946c     xpcruntime:xpcimports.obj
 0002:00004480       ??_C@_08PJFMOIGO@xpcOutpB?$AA@ 10019480     xpcruntime:xpcimports.obj
 0002:0000448c       ??_C@_0BE@PIELDNIL@xpcInpDW?5not?5found?6?$AA@ 1001948c     xpcruntime:xpcimports.obj
 0002:000044a0       ??_C@_08KDIAJBOP@xpcInpDW?$AA@ 100194a0     xpcruntime:xpcimports.obj
 0002:000044ac       ??_C@_0BD@FPCJFMCC@xpcInpW?5not?5found?6?$AA@ 100194ac     xpcruntime:xpcimports.obj
 0002:000044c0       ??_C@_07KIHBBOKH@xpcInpW?$AA@ 100194c0     xpcruntime:xpcimports.obj
 0002:000044c8       ??_C@_0BD@PGABEJOL@xpcInpB?5not?5found?6?$AA@ 100194c8     xpcruntime:xpcimports.obj
 0002:000044dc       ??_C@_07JPMEPILD@xpcInpB?$AA@ 100194dc     xpcruntime:xpcimports.obj
 0002:000044e4       ??_C@_0BK@HONODOKP@xpceFTSubtract?5not?5found?6?$AA@ 100194e4     xpcruntime:xpcimports.obj
 0002:00004500       ??_C@_0P@KEODBLHO@xpceFTSubtract?$AA@ 10019500     xpcruntime:xpcimports.obj
 0002:00004510       ??_C@_0BF@FJLEIILA@xpceFTAdd?5not?5found?6?$AA@ 10019510     xpcruntime:xpcimports.obj
 0002:00004528       ??_C@_09PHNHCHFH@xpceFTAdd?$AA@ 10019528     xpcruntime:xpcimports.obj
 0002:00004534       ??_C@_0BK@NMABIODN@xpceFTReadTime?5not?5found?6?$AA@ 10019534     xpcruntime:xpcimports.obj
 0002:00004550       ??_C@_0P@CPGPNKEB@xpceFTReadTime?$AA@ 10019550     xpcruntime:xpcimports.obj
 0002:00004560       ??_C@_0BN@DCAIKFFD@xpceDeRegisterISR?5not?5found?6?$AA@ 10019560     xpcruntime:xpcimports.obj
 0002:00004580       ??_C@_0BC@NLBADGKF@xpceDeRegisterISR?$AA@ 10019580     xpcruntime:xpcimports.obj
 0002:00004594       ??_C@_0BL@NNDLOEJE@xpceRegisterISR?5not?5found?6?$AA@ 10019594     xpcruntime:xpcimports.obj
 0002:000045b0       ??_C@_0BA@IJINKAHF@xpceRegisterISR?$AA@ 100195b0     xpcruntime:xpcimports.obj
 0002:000045c0       ??_C@_0BK@NJCKNFPN@xpceScopeAcqOK?5not?5found?6?$AA@ 100195c0     xpcruntime:xpcimports.obj
 0002:000045dc       ??_C@_0P@IEIIADJB@xpceScopeAcqOK?$AA@ 100195dc     xpcruntime:xpcimports.obj
 0002:000045ec       ??_C@_0CD@LLBEFFBO@rl32eRestartAcquisition?5not?5foun@ 100195ec     xpcruntime:xpcimports.obj
 0002:00004610       ??_C@_0BI@JAPOIDNG@rl32eRestartAcquisition?$AA@ 10019610     xpcruntime:xpcimports.obj
 0002:00004628       ??_C@_0CE@JLGHCFHI@rl32eSetTargetScopeSigFt?5not?5fou@ 10019628     xpcruntime:xpcimports.obj
 0002:0000464c       ??_C@_0BJ@LIDLNDHC@rl32eSetTargetScopeSigFt?$AA@ 1001964c     xpcruntime:xpcimports.obj
 0002:00004668       ??_C@_0BP@JCHFMKPJ@rl32eSetTargetScope?5not?5found?6?$AA@ 10019668     xpcruntime:xpcimports.obj
 0002:00004688       ??_C@_0BE@DLACEEJM@rl32eSetTargetScope?$AA@ 10019688     xpcruntime:xpcimports.obj
 0002:0000469c       ??_C@_0BK@JODJPNNH@xpceFSScopeSet?5not?5found?6?$AA@ 1001969c     xpcruntime:xpcimports.obj
 0002:000046b8       ??_C@_0P@IKMCBMHH@xpceFSScopeSet?$AA@ 100196b8     xpcruntime:xpcimports.obj
 0002:000046c8       ??_C@_0BJ@JCLHHIN@rl32eSetScope?5not?5found?6?$AA@ 100196c8     xpcruntime:xpcimports.obj
 0002:000046e4       ??_C@_0O@CFDGALBP@rl32eSetScope?$AA@ 100196e4     xpcruntime:xpcimports.obj
 0002:000046f4       ??_C@_0BM@LGAMBAID@rl32eGetSignalNo?5not?5found?6?$AA@ 100196f4     xpcruntime:xpcimports.obj
 0002:00004710       ??_C@_0BB@LDMIHGCE@rl32eGetSignalNo?$AA@ 10019710     xpcruntime:xpcimports.obj
 0002:00004724       ??_C@_0BK@GMJAJBAI@rl32eAddSignal?5not?5found?6?$AA@ 10019724     xpcruntime:xpcimports.obj
 0002:00004740       ??_C@_0P@CKNKILDP@rl32eAddSignal?$AA@ 10019740     xpcruntime:xpcimports.obj
 0002:00004750       ??_C@_0BJ@CDNOENKA@rl32eDefScope?5not?5found?6?$AA@ 10019750     xpcruntime:xpcimports.obj
 0002:0000476c       ??_C@_0O@BNNGKJEA@rl32eDefScope?$AA@ 1001976c     xpcruntime:xpcimports.obj
 0002:0000477c       ??_C@_0BM@FJBFEGFG@rl32eScopeExists?5not?5found?6?$AA@ 1001977c     xpcruntime:xpcimports.obj
 0002:00004798       ??_C@_0BB@BNNCEDPC@rl32eScopeExists?$AA@ 10019798     xpcruntime:xpcimports.obj
 0002:000047ac       __FPinit                   100197ac     LIBCMT:_fpinit_.obj
 0002:00004850       __OP_FMODjmptab            10019850     LIBCMT:_87fmod_.obj
 0002:000048a0       ??_C@_0P@MIGLKIOC@CorExitProcess?$AA@ 100198a0     LIBCMT:crt0dat.obj
 0002:000048b0       ??_C@_1BI@BGOHAHKC@?$AAm?$AAs?$AAc?$AAo?$AAr?$AAe?$AAe?$AA?4?$AAd?$AAl?$AAl?$AA?$AA@ 100198b0     LIBCMT:crt0dat.obj
 0002:000048c8       ??_C@_15IABLJNFO@?$AA?6?$AA?6?$AA?$AA@ 100198c8     LIBCMT:wassert.obj
 0002:000048d0       ??_C@_13LBAGMAIH@?$AA?6?$AA?$AA@ 100198d0     LIBCMT:wassert.obj
 0002:000048d4       ??_C@_17LGKOMLJ@?$AA?4?$AA?4?$AA?4?$AA?$AA@ 100198d4     LIBCMT:wassert.obj
 0002:000048e0       ??_C@_1EK@MBDPDCGA@?$AAM?$AAi?$AAc?$AAr?$AAo?$AAs?$AAo?$AAf?$AAt?$AA?5?$AAV?$AAi?$AAs?$AAu?$AAa?$AAl?$AA?5?$AAC?$AA?$CL?$AA?$CL?$AA?5?$AAR?$AAu?$AAn?$AAt?$AAi?$AAm?$AAe?$AA?5?$AAL?$AAi?$AAb@ 100198e0     LIBCMT:wassert.obj
 0002:0000492c       ??_C@_1CO@EAEJAADC@?$AA?$DM?$AAp?$AAr?$AAo?$AAg?$AAr?$AAa?$AAm?$AA?5?$AAn?$AAa?$AAm?$AAe?$AA?5?$AAu?$AAn?$AAk?$AAn?$AAo?$AAw?$AAn?$AA?$DO?$AA?$AA@ 1001992c     LIBCMT:wassert.obj
 0002:0000495c       __pRawDllMain              1001995c     LIBCMT:dllcrt0.obj
 0002:0000495c       __pDefaultRawDllMain       1001995c     LIBCMT:dllcrt0.obj
 0002:00004960       ??_C@_1BO@BKOMIGKJ@?$AAr?$AAu?$AAn?$AAt?$AAi?$AAm?$AAe?$AA?5?$AAe?$AAr?$AAr?$AAo?$AAr?$AA?5?$AA?$AA@ 10019960     LIBCMT:crt0msg.obj
 0002:00004980       ??_C@_15JNBOKNOG@?$AA?$AN?$AA?6?$AA?$AA@ 10019980     LIBCMT:crt0msg.obj
 0002:00004988       ??_C@_1BM@JBBEPPHI@?$AAT?$AAL?$AAO?$AAS?$AAS?$AA?5?$AAe?$AAr?$AAr?$AAo?$AAr?$AA?$AN?$AA?6?$AA?$AA@ 10019988     LIBCMT:crt0msg.obj
 0002:000049a4       ??_C@_1BK@KMOMNAAI@?$AAS?$AAI?$AAN?$AAG?$AA?5?$AAe?$AAr?$AAr?$AAo?$AAr?$AA?$AN?$AA?6?$AA?$AA@ 100199a4     LIBCMT:crt0msg.obj
 0002:000049c0       ??_C@_1BO@BFCDCGC@?$AAD?$AAO?$AAM?$AAA?$AAI?$AAN?$AA?5?$AAe?$AAr?$AAr?$AAo?$AAr?$AA?$AN?$AA?6?$AA?$AA@ 100199c0     LIBCMT:crt0msg.obj
 0002:000049e0       ??_C@_1BOO@KGEDBGAJ@?$AAR?$AA6?$AA0?$AA3?$AA3?$AA?$AN?$AA?6?$AA?9?$AA?5?$AAA?$AAt?$AAt?$AAe?$AAm?$AAp?$AAt?$AA?5?$AAt?$AAo?$AA?5?$AAu?$AAs?$AAe?$AA?5?$AAM?$AAS?$AAI?$AAL?$AA?5?$AAc?$AAo?$AAd@ 100199e0     LIBCMT:crt0msg.obj
 0002:00004bd0       ??_C@_1GG@GOPILAJP@?$AAR?$AA6?$AA0?$AA3?$AA2?$AA?$AN?$AA?6?$AA?9?$AA?5?$AAn?$AAo?$AAt?$AA?5?$AAe?$AAn?$AAo?$AAu?$AAg?$AAh?$AA?5?$AAs?$AAp?$AAa?$AAc?$AAe?$AA?5?$AAf?$AAo?$AAr?$AA?5?$AAl?$AAo@ 10019bd0     LIBCMT:crt0msg.obj
 0002:00004c38       ??_C@_1MG@ENCOOIDF@?$AAR?$AA6?$AA0?$AA3?$AA1?$AA?$AN?$AA?6?$AA?9?$AA?5?$AAA?$AAt?$AAt?$AAe?$AAm?$AAp?$AAt?$AA?5?$AAt?$AAo?$AA?5?$AAi?$AAn?$AAi?$AAt?$AAi?$AAa?$AAl?$AAi?$AAz?$AAe?$AA?5?$AAt@ 10019c38     LIBCMT:crt0msg.obj
 0002:00004d00       ??_C@_1DO@BMFCDCD@?$AAR?$AA6?$AA0?$AA3?$AA0?$AA?$AN?$AA?6?$AA?9?$AA?5?$AAC?$AAR?$AAT?$AA?5?$AAn?$AAo?$AAt?$AA?5?$AAi?$AAn?$AAi?$AAt?$AAi?$AAa?$AAl?$AAi?$AAz?$AAe?$AAd?$AA?$AN?$AA?6?$AA?$AA@ 10019d00     LIBCMT:crt0msg.obj
 0002:00004d40       ??_C@_1EK@HHFLMAOL@?$AAR?$AA6?$AA0?$AA2?$AA8?$AA?$AN?$AA?6?$AA?9?$AA?5?$AAu?$AAn?$AAa?$AAb?$AAl?$AAe?$AA?5?$AAt?$AAo?$AA?5?$AAi?$AAn?$AAi?$AAt?$AAi?$AAa?$AAl?$AAi?$AAz?$AAe?$AA?5?$AAh?$AAe@ 10019d40     LIBCMT:crt0msg.obj
 0002:00004d90       ??_C@_1GK@MFGOKLAG@?$AAR?$AA6?$AA0?$AA2?$AA7?$AA?$AN?$AA?6?$AA?9?$AA?5?$AAn?$AAo?$AAt?$AA?5?$AAe?$AAn?$AAo?$AAu?$AAg?$AAh?$AA?5?$AAs?$AAp?$AAa?$AAc?$AAe?$AA?5?$AAf?$AAo?$AAr?$AA?5?$AAl?$AAo@ 10019d90     LIBCMT:crt0msg.obj
 0002:00004e00       ??_C@_1GK@MCAAGJMO@?$AAR?$AA6?$AA0?$AA2?$AA6?$AA?$AN?$AA?6?$AA?9?$AA?5?$AAn?$AAo?$AAt?$AA?5?$AAe?$AAn?$AAo?$AAu?$AAg?$AAh?$AA?5?$AAs?$AAp?$AAa?$AAc?$AAe?$AA?5?$AAf?$AAo?$AAr?$AA?5?$AAs?$AAt@ 10019e00     LIBCMT:crt0msg.obj
 0002:00004e70       ??_C@_1EM@MAADIHMB@?$AAR?$AA6?$AA0?$AA2?$AA5?$AA?$AN?$AA?6?$AA?9?$AA?5?$AAp?$AAu?$AAr?$AAe?$AA?5?$AAv?$AAi?$AAr?$AAt?$AAu?$AAa?$AAl?$AA?5?$AAf?$AAu?$AAn?$AAc?$AAt?$AAi?$AAo?$AAn?$AA?5?$AAc@ 10019e70     LIBCMT:crt0msg.obj
 0002:00004ec0       ??_C@_1GK@FHCKBEFA@?$AAR?$AA6?$AA0?$AA2?$AA4?$AA?$AN?$AA?6?$AA?9?$AA?5?$AAn?$AAo?$AAt?$AA?5?$AAe?$AAn?$AAo?$AAu?$AAg?$AAh?$AA?5?$AAs?$AAp?$AAa?$AAc?$AAe?$AA?5?$AAf?$AAo?$AAr?$AA?5?$AA_?$AAo@ 10019ec0     LIBCMT:crt0msg.obj
 0002:00004f30       ??_C@_1FC@ECHBIFBC@?$AAR?$AA6?$AA0?$AA1?$AA9?$AA?$AN?$AA?6?$AA?9?$AA?5?$AAu?$AAn?$AAa?$AAb?$AAl?$AAe?$AA?5?$AAt?$AAo?$AA?5?$AAo?$AAp?$AAe?$AAn?$AA?5?$AAc?$AAo?$AAn?$AAs?$AAo?$AAl?$AAe?$AA?5@ 10019f30     LIBCMT:crt0msg.obj
 0002:00004f88       ??_C@_1EC@JIBHAOPH@?$AAR?$AA6?$AA0?$AA1?$AA8?$AA?$AN?$AA?6?$AA?9?$AA?5?$AAu?$AAn?$AAe?$AAx?$AAp?$AAe?$AAc?$AAt?$AAe?$AAd?$AA?5?$AAh?$AAe?$AAa?$AAp?$AA?5?$AAe?$AAr?$AAr?$AAo?$AAr?$AA?$AN?$AA?6@ 10019f88     LIBCMT:crt0msg.obj
 0002:00004fd0       ??_C@_1FK@BEOGODMC@?$AAR?$AA6?$AA0?$AA1?$AA7?$AA?$AN?$AA?6?$AA?9?$AA?5?$AAu?$AAn?$AAe?$AAx?$AAp?$AAe?$AAc?$AAt?$AAe?$AAd?$AA?5?$AAm?$AAu?$AAl?$AAt?$AAi?$AAt?$AAh?$AAr?$AAe?$AAa?$AAd?$AA?5@ 10019fd0     LIBCMT:crt0msg.obj
 0002:00005030       ??_C@_1FI@LOGNIKDM@?$AAR?$AA6?$AA0?$AA1?$AA6?$AA?$AN?$AA?6?$AA?9?$AA?5?$AAn?$AAo?$AAt?$AA?5?$AAe?$AAn?$AAo?$AAu?$AAg?$AAh?$AA?5?$AAs?$AAp?$AAa?$AAc?$AAe?$AA?5?$AAf?$AAo?$AAr?$AA?5?$AAt?$AAh@ 1001a030     LIBCMT:crt0msg.obj
 0002:00005088       ??_C@_1EG@BEHAGFJD@?$AAR?$AA6?$AA0?$AA1?$AA0?$AA?$AN?$AA?6?$AA?9?$AA?5?$AAa?$AAb?$AAo?$AAr?$AAt?$AA?$CI?$AA?$CJ?$AA?5?$AAh?$AAa?$AAs?$AA?5?$AAb?$AAe?$AAe?$AAn?$AA?5?$AAc?$AAa?$AAl?$AAl?$AAe?$AAd@ 1001a088     LIBCMT:crt0msg.obj
 0002:000050d0       ??_C@_1FI@HONFMGBI@?$AAR?$AA6?$AA0?$AA0?$AA9?$AA?$AN?$AA?6?$AA?9?$AA?5?$AAn?$AAo?$AAt?$AA?5?$AAe?$AAn?$AAo?$AAu?$AAg?$AAh?$AA?5?$AAs?$AAp?$AAa?$AAc?$AAe?$AA?5?$AAf?$AAo?$AAr?$AA?5?$AAe?$AAn@ 1001a0d0     LIBCMT:crt0msg.obj
 0002:00005128       ??_C@_1FE@LLNEDJMD@?$AAR?$AA6?$AA0?$AA0?$AA8?$AA?$AN?$AA?6?$AA?9?$AA?5?$AAn?$AAo?$AAt?$AA?5?$AAe?$AAn?$AAo?$AAu?$AAg?$AAh?$AA?5?$AAs?$AAp?$AAa?$AAc?$AAe?$AA?5?$AAf?$AAo?$AAr?$AA?5?$AAa?$AAr@ 1001a128     LIBCMT:crt0msg.obj
 0002:00005180       ??_C@_1FK@PGACCAFB@?$AAR?$AA6?$AA0?$AA0?$AA2?$AA?$AN?$AA?6?$AA?9?$AA?5?$AAf?$AAl?$AAo?$AAa?$AAt?$AAi?$AAn?$AAg?$AA?5?$AAp?$AAo?$AAi?$AAn?$AAt?$AA?5?$AAs?$AAu?$AAp?$AAp?$AAo?$AAr?$AAt?$AA?5@ 1001a180     LIBCMT:crt0msg.obj
 0002:00005290       ??_C@_1DE@JNGNBFGO@?$AAR?$AAu?$AAn?$AAt?$AAi?$AAm?$AAe?$AA?5?$AAE?$AAr?$AAr?$AAo?$AAr?$AA?$CB?$AA?6?$AA?6?$AAP?$AAr?$AAo?$AAg?$AAr?$AAa?$AAm?$AA?3?$AA?5?$AA?$AA@ 1001a290     LIBCMT:crt0msg.obj
 0002:000052c4       ??_C@_05KLBDPFGC@e?$CL000?$AA@ 1001a2c4     LIBCMT:cvt.obj
 0002:00005338       ??_C@_03IIINPABG@tan?$AA@  1001a338     LIBCMT:_libm_error_.obj
 0002:0000533c       ??_C@_03LALBNOCG@cos?$AA@  1001a33c     LIBCMT:_libm_error_.obj
 0002:00005340       ??_C@_03BLEJJJBH@sin?$AA@  1001a340     LIBCMT:_libm_error_.obj
 0002:00005344       ??_C@_04EHEDPDJG@modf?$AA@ 1001a344     LIBCMT:_libm_error_.obj
 0002:0000534c       ??_C@_05PBJFFIGL@floor?$AA@ 1001a34c     LIBCMT:_libm_error_.obj
 0002:00005354       ??_C@_04GFPJNGEK@ceil?$AA@ 1001a354     LIBCMT:_libm_error_.obj
 0002:0000535c       ??_C@_04MLLJIGOK@atan?$AA@ 1001a35c     LIBCMT:_libm_error_.obj
 0002:00005364       ??_C@_05EOHGHCHD@exp10?$AA@ 1001a364     LIBCMT:_libm_error_.obj
 0002:0000536c       ??_C@_04PDIFKINK@acos?$AA@ 1001a36c     LIBCMT:_libm_error_.obj
 0002:00005374       ??_C@_04FIHNOPOL@asin?$AA@ 1001a374     LIBCMT:_libm_error_.obj
 0002:0000537c       ??_C@_03MGHMBJCF@log?$AA@  1001a37c     LIBCMT:_libm_error_.obj
 0002:00005380       ??_C@_05HGHHAHAP@log10?$AA@ 1001a380     LIBCMT:_libm_error_.obj
 0002:00005388       ??_C@_03KHJOGHMM@exp?$AA@  1001a388     LIBCMT:_libm_error_.obj
 0002:0000538c       ??_C@_03JGHBODFD@pow?$AA@  1001a38c     LIBCMT:_libm_error_.obj
 0002:000053c0       __indefinite               1001a3c0     LIBCMT:_87disp_.obj
 0002:000053ca       __piby2                    1001a3ca     LIBCMT:_87disp_.obj
 0002:000053ec       ??_C@_1O@CEDCILHN@?$AA?$CI?$AAn?$AAu?$AAl?$AAl?$AA?$CJ?$AA?$AA@ 1001a3ec     LIBCMT:output.obj
 0002:000053fc       ??_C@_06OJHGLDPL@?$CInull?$CJ?$AA@ 1001a3fc     LIBCMT:output.obj
 0002:00005408       ___lookuptable             1001a408     LIBCMT:output.obj
 0002:00005464       ??_C@_0L@KDOEJCKC@_nextafter?$AA@ 1001a464     LIBCMT:_fpexcept_.obj
 0002:00005470       ??_C@_05JGDBENOH@_logb?$AA@ 1001a470     LIBCMT:_fpexcept_.obj
 0002:00005478       ??_C@_03ONILCKOB@_yn?$AA@  1001a478     LIBCMT:_fpexcept_.obj
 0002:0000547c       ??_C@_03NAKIGLHK@_y1?$AA@  1001a47c     LIBCMT:_fpexcept_.obj
 0002:00005480       ??_C@_03MJLDFKDL@_y0?$AA@  1001a480     LIBCMT:_fpexcept_.obj
 0002:00005484       ??_C@_05GKKHEGJL@frexp?$AA@ 1001a484     LIBCMT:_fpexcept_.obj
 0002:0000548c       ??_C@_04KEPJIHGP@fmod?$AA@ 1001a48c     LIBCMT:_fpexcept_.obj
 0002:00005494       ??_C@_06MEIMCGCF@_hypot?$AA@ 1001a494     LIBCMT:_fpexcept_.obj
 0002:0000549c       ??_C@_05KBKMEMPO@_cabs?$AA@ 1001a49c     LIBCMT:_fpexcept_.obj
 0002:000054a4       ??_C@_05CEJMAHNP@ldexp?$AA@ 1001a4a4     LIBCMT:_fpexcept_.obj
 0002:000054ac       ??_C@_04ODHECPBC@fabs?$AA@ 1001a4ac     LIBCMT:_fpexcept_.obj
 0002:000054b4       ??_C@_04EIAKFFMI@sqrt?$AA@ 1001a4b4     LIBCMT:_fpexcept_.obj
 0002:000054bc       ??_C@_05KNGEOGJB@atan2?$AA@ 1001a4bc     LIBCMT:_fpexcept_.obj
 0002:000054c4       ??_C@_04FJHINJAO@tanh?$AA@ 1001a4c4     LIBCMT:_fpexcept_.obj
 0002:000054cc       ??_C@_04HPJJNFIM@cosh?$AA@ 1001a4cc     LIBCMT:_fpexcept_.obj
 0002:000054d4       ??_C@_04COOMCNPB@sinh?$AA@ 1001a4d4     LIBCMT:_fpexcept_.obj
 0002:00005504       ??_C@_1BK@DBDEIDLH@?$AAK?$AAE?$AAR?$AAN?$AAE?$AAL?$AA3?$AA2?$AA?4?$AAD?$AAL?$AAL?$AA?$AA@ 1001a504     LIBCMT:tidtable.obj
 0002:00005520       ??_C@_07PEJMOBNF@FlsFree?$AA@ 1001a520     LIBCMT:tidtable.obj
 0002:00005528       ??_C@_0M@JCPCPOEF@FlsSetValue?$AA@ 1001a528     LIBCMT:tidtable.obj
 0002:00005534       ??_C@_0M@GDNOONDI@FlsGetValue?$AA@ 1001a534     LIBCMT:tidtable.obj
 0002:00005540       ??_C@_08KNHFBNJ@FlsAlloc?$AA@ 1001a540     LIBCMT:tidtable.obj
 0002:0000554c       ??_C@_0BI@DFKBFLJE@GetProcessWindowStation?$AA@ 1001a54c     LIBCMT:crtmboxw.obj
 0002:00005564       ??_C@_0BK@DEKFELLI@GetUserObjectInformationW?$AA@ 1001a564     LIBCMT:crtmboxw.obj
 0002:00005580       ??_C@_0BD@HHGDFDBJ@GetLastActivePopup?$AA@ 1001a580     LIBCMT:crtmboxw.obj
 0002:00005594       ??_C@_0BA@HNOPNCHB@GetActiveWindow?$AA@ 1001a594     LIBCMT:crtmboxw.obj
 0002:000055a4       ??_C@_0M@DLDCCGNP@MessageBoxW?$AA@ 1001a5a4     LIBCMT:crtmboxw.obj
 0002:000055b0       ??_C@_1BG@GOEBHBDC@?$AAU?$AAS?$AAE?$AAR?$AA3?$AA2?$AA?4?$AAD?$AAL?$AAL?$AA?$AA@ 1001a5b0     LIBCMT:crtmboxw.obj
 0002:000055c8       __XcptActTab               1001a5c8     LIBCMT:winxfltr.obj
 0002:00005658       __First_FPE_Indx           1001a658     LIBCMT:winxfltr.obj
 0002:0000565c       __Num_FPE                  1001a65c     LIBCMT:winxfltr.obj
 0002:00005660       __XcptActTabSize           1001a660     LIBCMT:winxfltr.obj
 0002:00005664       __XcptActTabCount          1001a664     LIBCMT:winxfltr.obj
 0002:00005668       ??_C@_1BC@GDGBMEMK@?$AAH?$AAH?$AA?3?$AAm?$AAm?$AA?3?$AAs?$AAs?$AA?$AA@ 1001a668     LIBCMT:nlsdata2.obj
 0002:0000567c       ??_C@_1CI@KNAKOEBC@?$AAd?$AAd?$AAd?$AAd?$AA?0?$AA?5?$AAM?$AAM?$AAM?$AAM?$AA?5?$AAd?$AAd?$AA?0?$AA?5?$AAy?$AAy?$AAy?$AAy?$AA?$AA@ 1001a67c     LIBCMT:nlsdata2.obj
 0002:000056a4       ??_C@_1BC@IEBCMHCM@?$AAM?$AAM?$AA?1?$AAd?$AAd?$AA?1?$AAy?$AAy?$AA?$AA@ 1001a6a4     LIBCMT:nlsdata2.obj
 0002:000056b8       ??_C@_15CLMNNGEL@?$AAP?$AAM?$AA?$AA@ 1001a6b8     LIBCMT:nlsdata2.obj
 0002:000056c0       ??_C@_15ODEHAHHF@?$AAA?$AAM?$AA?$AA@ 1001a6c0     LIBCMT:nlsdata2.obj
 0002:000056c8       ??_C@_1BC@FEMKIFH@?$AAD?$AAe?$AAc?$AAe?$AAm?$AAb?$AAe?$AAr?$AA?$AA@ 1001a6c8     LIBCMT:nlsdata2.obj
 0002:000056dc       ??_C@_1BC@BGLIFPF@?$AAN?$AAo?$AAv?$AAe?$AAm?$AAb?$AAe?$AAr?$AA?$AA@ 1001a6dc     LIBCMT:nlsdata2.obj
 0002:000056f0       ??_C@_1BA@EPANDLNG@?$AAO?$AAc?$AAt?$AAo?$AAb?$AAe?$AAr?$AA?$AA@ 1001a6f0     LIBCMT:nlsdata2.obj
 0002:00005700       ??_C@_1BE@DKAAMBJL@?$AAS?$AAe?$AAp?$AAt?$AAe?$AAm?$AAb?$AAe?$AAr?$AA?$AA@ 1001a700     LIBCMT:nlsdata2.obj
 0002:00005714       ??_C@_1O@PAHLKOAC@?$AAA?$AAu?$AAg?$AAu?$AAs?$AAt?$AA?$AA@ 1001a714     LIBCMT:nlsdata2.obj
 0002:00005724       ??_C@_19BIFMLPCD@?$AAJ?$AAu?$AAl?$AAy?$AA?$AA@ 1001a724     LIBCMT:nlsdata2.obj
 0002:00005730       ??_C@_19EPFLPGAP@?$AAJ?$AAu?$AAn?$AAe?$AA?$AA@ 1001a730     LIBCMT:nlsdata2.obj
 0002:0000573c       ??_C@_1M@GJNLMHFD@?$AAA?$AAp?$AAr?$AAi?$AAl?$AA?$AA@ 1001a73c     LIBCMT:nlsdata2.obj
 0002:00005748       ??_C@_1M@IKEENEDF@?$AAM?$AAa?$AAr?$AAc?$AAh?$AA?$AA@ 1001a748     LIBCMT:nlsdata2.obj
 0002:00005754       ??_C@_1BC@JGDDFFAM@?$AAF?$AAe?$AAb?$AAr?$AAu?$AAa?$AAr?$AAy?$AA?$AA@ 1001a754     LIBCMT:nlsdata2.obj
 0002:00005768       ??_C@_1BA@EFMEIEBA@?$AAJ?$AAa?$AAn?$AAu?$AAa?$AAr?$AAy?$AA?$AA@ 1001a768     LIBCMT:nlsdata2.obj
 0002:00005778       ??_C@_17EGKACKIF@?$AAD?$AAe?$AAc?$AA?$AA@ 1001a778     LIBCMT:nlsdata2.obj
 0002:00005780       ??_C@_17BBDMLCIG@?$AAN?$AAo?$AAv?$AA?$AA@ 1001a780     LIBCMT:nlsdata2.obj
 0002:00005788       ??_C@_17FNLKOI@?$AAO?$AAc?$AAt?$AA?$AA@ 1001a788     LIBCMT:nlsdata2.obj
 0002:00005790       ??_C@_17HCHCOKMG@?$AAS?$AAe?$AAp?$AA?$AA@ 1001a790     LIBCMT:nlsdata2.obj
 0002:00005798       ??_C@_17ICPELBCN@?$AAA?$AAu?$AAg?$AA?$AA@ 1001a798     LIBCMT:nlsdata2.obj
 0002:000057a0       ??_C@_17IJPCKHK@?$AAJ?$AAu?$AAl?$AA?$AA@ 1001a7a0     LIBCMT:nlsdata2.obj
 0002:000057a8       ??_C@_17KCJGOCPB@?$AAJ?$AAu?$AAn?$AA?$AA@ 1001a7a8     LIBCMT:nlsdata2.obj
 0002:000057b0       ??_C@_17PNNKMEED@?$AAM?$AAa?$AAy?$AA?$AA@ 1001a7b0     LIBCMT:nlsdata2.obj
 0002:000057b8       ??_C@_17LFPOIHDD@?$AAA?$AAp?$AAr?$AA?$AA@ 1001a7b8     LIBCMT:nlsdata2.obj
 0002:000057c0       ??_C@_17CKNLEDEC@?$AAM?$AAa?$AAr?$AA?$AA@ 1001a7c0     LIBCMT:nlsdata2.obj
 0002:000057c8       ??_C@_17LMDJEKJN@?$AAF?$AAe?$AAb?$AA?$AA@ 1001a7c8     LIBCMT:nlsdata2.obj
 0002:000057d0       ??_C@_17DKNBKCHM@?$AAJ?$AAa?$AAn?$AA?$AA@ 1001a7d0     LIBCMT:nlsdata2.obj
 0002:000057d8       ??_C@_1BC@ENMNNPAJ@?$AAS?$AAa?$AAt?$AAu?$AAr?$AAd?$AAa?$AAy?$AA?$AA@ 1001a7d8     LIBCMT:nlsdata2.obj
 0002:000057ec       ??_C@_1O@PDICJHAG@?$AAF?$AAr?$AAi?$AAd?$AAa?$AAy?$AA?$AA@ 1001a7ec     LIBCMT:nlsdata2.obj
 0002:000057fc       ??_C@_1BC@HHMNLIHE@?$AAT?$AAh?$AAu?$AAr?$AAs?$AAd?$AAa?$AAy?$AA?$AA@ 1001a7fc     LIBCMT:nlsdata2.obj
 0002:00005810       ??_C@_1BE@EBOGMDOH@?$AAW?$AAe?$AAd?$AAn?$AAe?$AAs?$AAd?$AAa?$AAy?$AA?$AA@ 1001a810     LIBCMT:nlsdata2.obj
 0002:00005824       ??_C@_1BA@ENFBFFEK@?$AAT?$AAu?$AAe?$AAs?$AAd?$AAa?$AAy?$AA?$AA@ 1001a824     LIBCMT:nlsdata2.obj
 0002:00005834       ??_C@_1O@MMNBFLIA@?$AAM?$AAo?$AAn?$AAd?$AAa?$AAy?$AA?$AA@ 1001a834     LIBCMT:nlsdata2.obj
 0002:00005844       ??_C@_1O@IHNHDHPB@?$AAS?$AAu?$AAn?$AAd?$AAa?$AAy?$AA?$AA@ 1001a844     LIBCMT:nlsdata2.obj
 0002:00005854       ??_C@_17GGIBDPIH@?$AAS?$AAa?$AAt?$AA?$AA@ 1001a854     LIBCMT:nlsdata2.obj
 0002:0000585c       ??_C@_17HFOLPPLP@?$AAF?$AAr?$AAi?$AA?$AA@ 1001a85c     LIBCMT:nlsdata2.obj
 0002:00005864       ??_C@_17PDPHAADD@?$AAT?$AAh?$AAu?$AA?$AA@ 1001a864     LIBCMT:nlsdata2.obj
 0002:0000586c       ??_C@_17CJEDCEPE@?$AAW?$AAe?$AAd?$AA?$AA@ 1001a86c     LIBCMT:nlsdata2.obj
 0002:00005874       ??_C@_17BMKGEGOJ@?$AAT?$AAu?$AAe?$AA?$AA@ 1001a874     LIBCMT:nlsdata2.obj
 0002:0000587c       ??_C@_17KBOMKBF@?$AAM?$AAo?$AAn?$AA?$AA@ 1001a87c     LIBCMT:nlsdata2.obj
 0002:00005884       ??_C@_17MBGCMIPB@?$AAS?$AAu?$AAn?$AA?$AA@ 1001a884     LIBCMT:nlsdata2.obj
 0002:0000588c       ??_C@_08JCCMCCIL@HH?3mm?3ss?$AA@ 1001a88c     LIBCMT:nlsdata2.obj
 0002:00005898       ??_C@_0BE@CKGJFCPC@dddd?0?5MMMM?5dd?0?5yyyy?$AA@ 1001a898     LIBCMT:nlsdata2.obj
 0002:000058ac       ??_C@_08BPBNCDIB@MM?1dd?1yy?$AA@ 1001a8ac     LIBCMT:nlsdata2.obj
 0002:000058b8       ??_C@_02CJNFDJBF@PM?$AA@   1001a8b8     LIBCMT:nlsdata2.obj
 0002:000058bc       ??_C@_02DEDBPAFC@AM?$AA@   1001a8bc     LIBCMT:nlsdata2.obj
 0002:000058c0       ??_C@_08EDHMEBNP@December?$AA@ 1001a8c0     LIBCMT:nlsdata2.obj
 0002:000058cc       ??_C@_08HCHEGEOA@November?$AA@ 1001a8cc     LIBCMT:nlsdata2.obj
 0002:000058d8       ??_C@_07JJNFCEND@October?$AA@ 1001a8d8     LIBCMT:nlsdata2.obj
 0002:000058e0       ??_C@_09BHHEALKD@September?$AA@ 1001a8e0     LIBCMT:nlsdata2.obj
 0002:000058ec       ??_C@_06LBBHFDDG@August?$AA@ 1001a8ec     LIBCMT:nlsdata2.obj
 0002:000058f4       ??_C@_04MIEPOIFP@July?$AA@ 1001a8f4     LIBCMT:nlsdata2.obj
 0002:000058fc       ??_C@_04CNLMGBGM@June?$AA@ 1001a8fc     LIBCMT:nlsdata2.obj
 0002:00005904       ??_C@_05DMJDNLEJ@April?$AA@ 1001a904     LIBCMT:nlsdata2.obj
 0002:0000590c       ??_C@_05HPCKOFNC@March?$AA@ 1001a90c     LIBCMT:nlsdata2.obj
 0002:00005914       ??_C@_08GNJGEPFN@February?$AA@ 1001a914     LIBCMT:nlsdata2.obj
 0002:00005920       ??_C@_07CGJPFGJA@January?$AA@ 1001a920     LIBCMT:nlsdata2.obj
 0002:00005928       ??_C@_03MKABNOCG@Dec?$AA@  1001a928     LIBCMT:nlsdata2.obj
 0002:0000592c       ??_C@_03JPJOFNIA@Nov?$AA@  1001a92c     LIBCMT:nlsdata2.obj
 0002:00005930       ??_C@_03BMAOKBAD@Oct?$AA@  1001a930     LIBCMT:nlsdata2.obj
 0002:00005934       ??_C@_03GGCAPAJC@Sep?$AA@  1001a934     LIBCMT:nlsdata2.obj
 0002:00005938       ??_C@_03IFJFEIGA@Aug?$AA@  1001a938     LIBCMT:nlsdata2.obj
 0002:0000593c       ??_C@_03LBGABGKK@Jul?$AA@  1001a93c     LIBCMT:nlsdata2.obj
 0002:00005940       ??_C@_03IDFGHECI@Jun?$AA@  1001a940     LIBCMT:nlsdata2.obj
 0002:00005944       ??_C@_03CNMDKL@May?$AA@    1001a944     LIBCMT:nlsdata2.obj
 0002:00005948       ??_C@_03LEOLGMJP@Apr?$AA@  1001a948     LIBCMT:nlsdata2.obj
 0002:0000594c       ??_C@_03ODNJBKGA@Mar?$AA@  1001a94c     LIBCMT:nlsdata2.obj
 0002:00005950       ??_C@_03HJBDCHOM@Feb?$AA@  1001a950     LIBCMT:nlsdata2.obj
 0002:00005954       ??_C@_03JIHJHPIE@Jan?$AA@  1001a954     LIBCMT:nlsdata2.obj
 0002:00005958       ??_C@_08INBOOONO@Saturday?$AA@ 1001a958     LIBCMT:nlsdata2.obj
 0002:00005964       ??_C@_06JECMNKMI@Friday?$AA@ 1001a964     LIBCMT:nlsdata2.obj
 0002:0000596c       ??_C@_08HACCIKIA@Thursday?$AA@ 1001a96c     LIBCMT:nlsdata2.obj
 0002:00005978       ??_C@_09DLIGFAKA@Wednesday?$AA@ 1001a978     LIBCMT:nlsdata2.obj
 0002:00005984       ??_C@_07BAAGCFCM@Tuesday?$AA@ 1001a984     LIBCMT:nlsdata2.obj
 0002:0000598c       ??_C@_06JLEDEDGH@Monday?$AA@ 1001a98c     LIBCMT:nlsdata2.obj
 0002:00005994       ??_C@_06OOPIFAJ@Sunday?$AA@ 1001a994     LIBCMT:nlsdata2.obj
 0002:0000599c       ??_C@_03FEFJNEK@Sat?$AA@   1001a99c     LIBCMT:nlsdata2.obj
 0002:000059a0       ??_C@_03IDIOELNC@Fri?$AA@  1001a9a0     LIBCMT:nlsdata2.obj
 0002:000059a4       ??_C@_03IOFIKPDN@Thu?$AA@  1001a9a4     LIBCMT:nlsdata2.obj
 0002:000059a8       ??_C@_03MHOMLAJA@Wed?$AA@  1001a9a8     LIBCMT:nlsdata2.obj
 0002:000059ac       ??_C@_03NAGEINEP@Tue?$AA@  1001a9ac     LIBCMT:nlsdata2.obj
 0002:000059b0       ??_C@_03PDAGKDH@Mon?$AA@   1001a9b0     LIBCMT:nlsdata2.obj
 0002:000059b4       ??_C@_03KOEHGMDN@Sun?$AA@  1001a9b4     LIBCMT:nlsdata2.obj
 0002:000059b8       ___lookuptable_s           1001a9b8     LIBCMT:outputs.obj
 0002:00005a18       ___newctype                1001aa18     LIBCMT:ctype.obj
 0002:00005d18       __wctype                   1001ad18     LIBCMT:ctype.obj
 0002:00005f20       ___newclmap                1001af20     LIBCMT:ctype.obj
 0002:000060a0       ___newcumap                1001b0a0     LIBCMT:ctype.obj
 0002:000062a0       ??_C@_06IMKFLFPG@1?$CDQNAN?$AA@ 1001b2a0     LIBCMT:_x10fout_.obj
 0002:000062a8       ??_C@_05DNEBIAHO@1?$CDINF?$AA@ 1001b2a8     LIBCMT:_x10fout_.obj
 0002:000062b0       ??_C@_05PHHOCPM@1?$CDIND?$AA@ 1001b2b0     LIBCMT:_x10fout_.obj
 0002:000062b8       ??_C@_06PGGFOGJG@1?$CDSNAN?$AA@ 1001b2b8     LIBCMT:_x10fout_.obj
 0002:000062c0       ??_C@_1BA@BALFACEM@?$AAC?$AAO?$AAN?$AAO?$AAU?$AAT?$AA$?$AA?$AA@ 1001b2c0     LIBCMT:initcon.obj
 0002:000062d0       __load_config_used         1001b2d0     LIBCMT:loadcfg.obj
 0002:00006320       ___safe_se_handler_table   1001b320     <linker-defined>
 0002:0000632c       ___rtc_iaa                 1001b32c     LIBCMT:_initsect_.obj
 0002:00006330       ___rtc_izz                 1001b330     LIBCMT:_initsect_.obj
 0002:00006334       ___rtc_taa                 1001b334     LIBCMT:_initsect_.obj
 0002:00006338       ___rtc_tzz                 1001b338     LIBCMT:_initsect_.obj
 0002:00006634       __IMPORT_DESCRIPTOR_KERNEL32 1001b634     kernel32:KERNEL32.dll
 0002:00006648       __NULL_IMPORT_DESCRIPTOR   1001b648     kernel32:KERNEL32.dll
 0003:00000368       _testmodel_1109_P          1001c368     testmodel_1109_data.obj
 0003:00000c88       _pci20041digout            1001cc88     xpctarget.obj
 0003:00000c8c       _nipcdio24cnfg             1001cc8c     xpctarget.obj
 0003:00000c90       _rtddm6604cnfg             1001cc90     xpctarget.obj
 0003:00000d78       _DefaultCOMIOBase          1001cd78     xpcruntime:xpcimports.obj
 0003:00000d88       _DefaultCOMIRQ             1001cd88     xpcruntime:xpcimports.obj
 0003:00000d98       __fltused                  1001cd98     LIBCMT:_fpinit_.obj
 0003:00000d9c       __ldused                   1001cd9c     LIBCMT:_fpinit_.obj
 0003:00000da0       __iob                      1001cda0     LIBCMT:_file.obj
 0003:00001020       ___security_cookie         1001d020     LIBCMT:gs_cookie.obj
 0003:00001024       ___security_cookie_complement 1001d024     LIBCMT:gs_cookie.obj
 0003:00001200       __cfltcvt_tab              1001d200     LIBCMT:cmiscdat.obj
 0003:00001230       ___nullstring              1001d230     LIBCMT:output.obj
 0003:00001234       ___wnullstring             1001d234     LIBCMT:output.obj
 0003:00001240       __d_inf                    1001d240     LIBCMT:_util_.obj
 0003:00001248       __d_ind                    1001d248     LIBCMT:_util_.obj
 0003:00001250       __d_max                    1001d250     LIBCMT:_util_.obj
 0003:00001258       __d_min                    1001d258     LIBCMT:_util_.obj
 0003:00001260       __d_mzero                  1001d260     LIBCMT:_util_.obj
 0003:00001370       ___badioinfo               1001d370     LIBCMT:ioinit.obj
 0003:000014d0       __lookuptrailbytes         1001d4d0     LIBCMT:read.obj
 0003:000015d0       ___flsindex                1001d5d0     LIBCMT:tidtable.obj
 0003:000015d4       ___getvalueindex           1001d5d4     LIBCMT:tidtable.obj
 0003:000015d8       ___abort_behavior          1001d5d8     LIBCMT:abort.obj
 0003:000015e0       ___initialmbcinfo          1001d5e0     LIBCMT:mbctype.obj
 0003:00001800       __mbctype                  1001d800     LIBCMT:mbctype.obj
 0003:00001908       __mbcasemap                1001d908     LIBCMT:mbctype.obj
 0003:00001a08       ___ptmbcinfo               1001da08     LIBCMT:mbctype.obj
 0003:00001b00       ___globallocalestatus      1001db00     LIBCMT:glstatus.obj
 0003:00001b04       ___clocalestr              1001db04     LIBCMT:nlsdata2.obj
 0003:00001b08       ___lc_time_c               1001db08     LIBCMT:nlsdata2.obj
 0003:00001c70       ___initiallocinfo          1001dc70     LIBCMT:nlsdata2.obj
 0003:00001d48       ___ptlocinfo               1001dd48     LIBCMT:nlsdata2.obj
 0003:00001d50       __matherr_flag             1001dd50     LIBCMT:_matherr_.obj
 0003:00001d60       __NLG_Destination          1001dd60     LIBCMT:exsup.obj
 0003:00001d70       ___lconv_static_decimal    1001dd70     LIBCMT:lconv.obj
 0003:00001d74       ___lconv_static_W_decimal  1001dd74     LIBCMT:lconv.obj
 0003:00001d78       ___lconv_c                 1001dd78     LIBCMT:lconv.obj
 0003:00001dc8       ___lconv                   1001ddc8     LIBCMT:lconv.obj
 0003:00001dcc       __pctype                   1001ddcc     LIBCMT:ctype.obj
 0003:00001dd0       __pwctype                  1001ddd0     LIBCMT:ctype.obj
 0003:00001e08       __confh                    1001de08     LIBCMT:initcon.obj
 0003:00001e10       ___mb_cur_max              1001de10     LIBCMT:nlsdata1.obj
 0003:00001e14       ___decimal_point           1001de14     LIBCMT:nlsdata1.obj
 0003:00001e18       ___decimal_point_length    1001de18     LIBCMT:nlsdata1.obj
 0003:00001e20       __pow10pos                 1001de20     LIBCMT:_constpow_.obj
 0003:00001f80       __pow10neg                 1001df80     LIBCMT:_constpow_.obj
 0003:00002138       _pci20098PortA             1001e138     xpctarget.obj
 0003:0000213c       _pci20098PortB             1001e13c     xpctarget.obj
 0003:00002140       _siepowercan_firmware_initialized 1001e140     xpctarget.obj
 0003:00002144       _siepowercan_port1_configured 1001e144     xpctarget.obj
 0003:00002148       _siepowercan_port2_configured 1001e148     xpctarget.obj
 0003:0000214c       _CANAC2_FIRMWARE_LOADED    1001e14c     xpctarget.obj
 0003:00002150       _rs232ports                1001e150     xpctarget.obj
 0003:00002160       _NI_AT_MIO_16F_5_commreg2  1001e160     xpctarget.obj
 0003:00002164       _RTD_DM6430_init           1001e164     xpctarget.obj
 0003:00002168       _RTD_DM6420_init           1001e168     xpctarget.obj
 0003:0000216c       _CANAC2_FIRMWARE_LOADED_mb1 1001e16c     xpctarget.obj
 0003:00002170       _CANAC2_FIRMWARE_LOADED_mb2 1001e170     xpctarget.obj
 0003:00002174       _CANAC2_FIRMWARE_LOADED_mb3 1001e174     xpctarget.obj
 0003:00002178       _xmlsize                   1001e178     xpctarget.obj
 0003:00002480       ___fastflag                1001e480     LIBCMT:_fpinit_.obj
 0003:00002488       __cflush                   1001e488     LIBCMT:_file.obj
 0003:0000248c       __umaskval                 1001e48c     LIBCMT:crt0dat.obj
 0003:00002490       ___argc                    1001e490     LIBCMT:crt0dat.obj
 0003:00002494       ___argv                    1001e494     LIBCMT:crt0dat.obj
 0003:00002498       ___wargv                   1001e498     LIBCMT:crt0dat.obj
 0003:0000249c       __environ                  1001e49c     LIBCMT:crt0dat.obj
 0003:000024a0       ___initenv                 1001e4a0     LIBCMT:crt0dat.obj
 0003:000024a4       __wenviron                 1001e4a4     LIBCMT:crt0dat.obj
 0003:000024a8       ___winitenv                1001e4a8     LIBCMT:crt0dat.obj
 0003:000024ac       __pgmptr                   1001e4ac     LIBCMT:crt0dat.obj
 0003:000024b0       __wpgmptr                  1001e4b0     LIBCMT:crt0dat.obj
 0003:000024b4       __exitflag                 1001e4b4     LIBCMT:crt0dat.obj
 0003:000024b8       __C_Termination_Done       1001e4b8     LIBCMT:crt0dat.obj
 0003:000024bc       __C_Exit_Done              1001e4bc     LIBCMT:crt0dat.obj
 0003:000024c4       __aenvptr                  1001e4c4     LIBCMT:dllcrt0.obj
 0003:000024c8       __wenvptr                  1001e4c8     LIBCMT:dllcrt0.obj
 0003:000024cc       ___error_mode              1001e4cc     LIBCMT:dllcrt0.obj
 0003:000024d0       ___app_type                1001e4d0     LIBCMT:dllcrt0.obj
 0003:00002b00       __crtheap                  1001eb00     LIBCMT:heapinit.obj
 0003:00002b04       ?_pnhHeap@@3P6AHI@ZA       1001eb04     LIBCMT:handler.obj
 0003:00002b08       __newmode                  1001eb08     LIBCMT:_newmode.obj
 0003:00002b10       __stdbuf                   1001eb10     LIBCMT:_sftbuf.obj
 0003:00002b18       ___pInvalidArgHandler      1001eb18     LIBCMT:invarg.obj
 0003:00002b1c       __maxwait                  1001eb1c     LIBCMT:crtheap.obj
 0003:00002f94       ?__pInconsistency@@3P6AXXZA 1001ef94     LIBCMT:hooks.obj
 0003:00002fb0       ___pPurecall               1001efb0     LIBCMT:inithelp.obj
 0003:00002fb4       _gpFlsAlloc                1001efb4     LIBCMT:tidtable.obj
 0003:00002fb8       _gpFlsGetValue             1001efb8     LIBCMT:tidtable.obj
 0003:00002fbc       _gpFlsSetValue             1001efbc     LIBCMT:tidtable.obj
 0003:00002fc0       _gpFlsFree                 1001efc0     LIBCMT:tidtable.obj
 0003:000030e4       ___mbulinfo                1001f0e4     LIBCMT:mbctype.obj
 0003:000030f0       ___mbcodepage              1001f0f0     LIBCMT:mbctype.obj
 0003:000030f4       ___ismbcodepage            1001f0f4     LIBCMT:mbctype.obj
 0003:000030f8       ___mblcid                  1001f0f8     LIBCMT:mbctype.obj
 0003:000030fc       __outputformat             1001f0fc     LIBCMT:outputformat.obj
 0003:00003100       __commode                  1001f100     LIBCMT:ncommode.obj
 0003:00003104       ___lconv_static_null       1001f104     LIBCMT:lconv.obj
 0003:00003108       ___lconv_static_W_null     1001f108     LIBCMT:lconv.obj
 0003:0000310c       ___locale_changed          1001f10c     LIBCMT:setlocal.obj
 0003:00003110       __fmode                    1001f110     LIBCMT:txtmode.obj
 0003:00003120       _ptrWritePointer2          1001f120     <common>
 0003:00003130       _ptrWritePointer1          1001f130     <common>
 0003:00003140       _rtInf                     1001f140     <common>
 0003:00003148       _rtMinusInfF               1001f148     <common>
 0003:0000314c       _rtInfF                    1001f14c     <common>
 0003:00003150       _rtMinusInf                1001f150     <common>
 0003:00003158       _rtNaN                     1001f158     <common>
 0003:00003160       _rtNaNF                    1001f160     <common>
 0003:00003180       _testmodel_1109_DW         1001f180     <common>
 0003:000032a0       _testmodel_1109_B          1001f2a0     <common>
 0003:000038d8       _testmodel_1109_PrevZCX    1001f8d8     <common>
 0003:000038e0       _testmodel_1109_M_         1001f8e0     <common>
 0003:00005f28       _xpcInpB                   10021f28     <common>
 0003:00005f2c       _rl32eReceiveChar          10021f2c     <common>
 0003:00005f30       _xpceUDPClose              10021f30     <common>
 0003:00005f34       _rl32eScopeExists          10021f34     <common>
 0003:00005f38       _CreateVideoDisplay        10021f38     <common>
 0003:00005f3c       _xpceCreateSemaphore       10021f3c     <common>
 0003:00005f40       _xpceSetParameter          10021f40     <common>
 0003:00005f44       _TBTakeSpinFast            10021f44     <common>
 0003:00005f48       _xpcGetElapsedTime         10021f48     <common>
 0003:00005f4c       _xpceUDPSend               10021f4c     <common>
 0003:00005f50       _rl32eSetTargetScope       10021f50     <common>
 0003:00005f54       _rl32eAddSignal            10021f54     <common>
 0003:00005f58       _xpceAssignPCIInterrupt    10021f58     <common>
 0003:00005f5c       _xpceSignalSemaphore       10021f5c     <common>
 0003:00005f60       _StartVideo                10021f60     <common>
 0003:00005f64       _startToAsyncQueueTgtAppSvc 10021f64     <common>
 0003:00005f68       _rl32eSetTargetScopeSigFt  10021f68     <common>
 0003:00005f6c       _rl32eSetScope             10021f6c     <common>
 0003:00005f70       _xpceUDPOpenReceive        10021f70     <common>
 0003:00005f74       _xpcReserveMemoryRegion    10021f74     <common>
 0003:00005f78       _getCommService            10021f78     <common>
 0003:00005f7c       _rl32eGetPCIInfoAtSlot     10021f7c     <common>
 0003:00005f80       _GetVideoConfigs           10021f80     <common>
 0003:00005f84       _rl32eReceiveBufferCount   10021f84     <common>
 0003:00005f88       _rl32eSendBlock            10021f88     <common>
 0003:00005f8c       _StartVideoDisplay         10021f8c     <common>
 0003:00005f90       _ReadFrameBuffer           10021f90     <common>
 0003:00005f94       _xpceDeRegisterISR         10021f94     <common>
 0003:00005f98       _xpceFSScopeSet            10021f98     <common>
 0003:00005f9c       _rl32eCloseCOMPort         10021f9c     <common>
 0003:00005fa0       _TBDeleteSpin              10021fa0     <common>
 0003:00005fa4       _rl32eRestartAcquisition   10021fa4     <common>
 0003:00005fa8       _rl32eDefScope             10021fa8     <common>
 0003:00005fac       _rl32eShowPCIInfo          10021fac     <common>
 0003:00005fb0       _xpcOutpB                  10021fb0     <common>
 0003:00005fb4       _xpceWaitSemaphore         10021fb4     <common>
 0003:00005fb8       _rl32eSendChar             10021fb8     <common>
 0003:00005fbc       _sendToAsyncQueueTgtAppSvc 10021fbc     <common>
 0003:00005fc0       _xpceDeleteSemaphore       10021fc0     <common>
 0003:00005fc4       _getStatusFlags            10021fc4     <common>
 0003:00005fc8       _rl32eGetSignalNo          10021fc8     <common>
 0003:00005fcc       _xpceGetTET                10021fcc     <common>
 0003:00005fd0       _xpceGetParameter          10021fd0     <common>
 0003:00005fd4       _StopVideo                 10021fd4     <common>
 0003:00005fd8       _getMemoryService          10021fd8     <common>
 0003:00005fdc       _terminateToAsyncQueueTgtAppSvc 10021fdc     <common>
 0003:00005fe0       _xpcBusyWait               10021fe0     <common>
 0003:00005fe4       _FindUsbVideoDevice        10021fe4     <common>
 0003:00005fe8       _xpceaddEvent              10021fe8     <common>
 0003:00005fec       _rl32eLineStatus           10021fec     <common>
 0003:00005ff0       _ConvertUImage             10021ff0     <common>
 0003:00005ff4       _xpceGetParamDims          10021ff4     <common>
 0003:00005ff8       _xpcIsModelInit            10021ff8     <common>
 0003:00005ffc       _xpceFTReadTime            10021ffc     <common>
 0003:00006000       _rl32eGetPCIInfo           10022000     <common>
 0003:00006004       _DestroyVideoDisplay       10022004     <common>
 0003:00006008       _xpceUDPReceive            10022008     <common>
 0003:0000600c       _xpceFTSubtract            1002200c     <common>
 0003:00006010       _TBCreateSpin              10022010     <common>
 0003:00006014       _rl32eShowPCIDev           10022014     <common>
 0003:00006018       _xpceFTAdd                 10022018     <common>
 0003:0000601c       _xpcFreePhysicalMemory     1002201c     <common>
 0003:00006020       _xpcAllocPhysicalMemory    10022020     <common>
 0003:00006024       _StreamVideo               10022024     <common>
 0003:00006028       _xpceScopeAcqOK            10022028     <common>
 0003:0000602c       _xpcInpDW                  1002202c     <common>
 0003:00006030       _xpcOutpDW                 10022030     <common>
 0003:00006034       _rl32eInitCOMPort          10022034     <common>
 0003:00006038       _StopVideoDisplay          10022038     <common>
 0003:0000603c       _xpcOutpW                  1002203c     <common>
 0003:00006040       _xpceGetSignalValue        10022040     <common>
 0003:00006044       _xpceUDPOpenSend           10022044     <common>
 0003:00006048       _xpcInpW                   10022048     <common>
 0003:0000604c       _TBGiveSpinFast            1002204c     <common>
 0003:00006050       _xpceRegisterISR           10022050     <common>
 0003:00006054       __debugger_hook_dummy      10022054     <common>
 0003:00006058       __nhandle                  10022058     <common>
 0003:00006060       ___pioinfo                 10022060     <common>
 0003:00006160       __pDestructExceptionObject 10022160     <common>
 0003:00006164       ___sse2_available          10022164     <common>
 0003:00006168       ___use_sse2_mathfcns       10022168     <common>
 0003:0000616c       __pmatherr                 1002216c     <common>
 0003:00006170       __acmdln                   10022170     <common>
 0003:00006174       ___env_initialized         10022174     <common>
 0003:00006178       ___onexitend               10022178     <common>
 0003:0000617c       ___onexitbegin             1002217c     <common>
 0003:00006180       ___mbctype_initialized     10022180     <common>
 0003:00006184       ___dyn_tls_init_callback   10022184     <common>
 0003:00006188       ___piob                    10022188     <common>
 0003:000061a0       __bufin                    100221a0     <common>
 0003:000071a0       __nstream                  100231a0     <common>

 entry point at        0001:00009908

 Static symbols

 0001:00000160       _testmodel_1109_output     10001160 f   testmodel_1109.obj
 0001:00002230       _testmodel_1109_update     10003230 f   testmodel_1109.obj
 0001:00002310       _testmodel_1109_initialize 10003310 f   testmodel_1109.obj
 0001:00002970       _testmodel_1109_terminate  10003970 f   testmodel_1109.obj
 0001:00004520       _mdlOutputs                10005520 f   xpctarget.obj
 0001:00004520       _mdlTerminate              10005520 f   xpctarget.obj
 0001:000046e0       _zffbcd1020c               100056e0 f   sg_IO601_write_s_3.obj
 0001:00004860       _z50a448c4af               10005860 f   sg_IO601_write_s_3.obj
 0001:00004a00       _mdlInitializeSizes        10005a00 f   sg_IO601_write_s_3.obj
 0001:00004b90       _mdlInitializeSampleTimes  10005b90 f   sg_IO601_write_s_3.obj
 0001:00004c00       _mdlStart                  10005c00 f   sg_IO601_write_s_3.obj
 0001:00004ff0       _mdlOutputs                10005ff0 f   sg_IO601_write_s_3.obj
 0001:00005260       _mdlTerminate              10006260 f   sg_IO601_write_s_3.obj
 0001:000054c0       _z2521217c2d               100064c0 f   sg_IO601_setup_s_3.obj
 0001:00005550       _z36e52286a2               10006550 f   sg_IO601_setup_s_3.obj
 0001:00005580       _z2cb48b8ffe               10006580 f   sg_IO601_setup_s_3.obj
 0001:000055c0       _z49452fc13f               100065c0 f   sg_IO601_setup_s_3.obj
 0001:00005640       _mdlInitializeSizes        10006640 f   sg_IO601_setup_s_3.obj
 0001:000056b0       _mdlInitializeSampleTimes  100066b0 f   sg_IO601_setup_s_3.obj
 0001:000056d0       _mdlStart                  100066d0 f   sg_IO601_setup_s_3.obj
 0001:000062e0       _mdlTerminate              100072e0 f   sg_IO601_setup_s_3.obj
 0001:00006440       _z825df60379               10007440 f   sg_IO601_read_s_3.obj
 0001:00006690       _mdlInitializeSizes        10007690 f   sg_IO601_read_s_3.obj
 0001:000067e0       _mdlInitializeSampleTimes  100077e0 f   sg_IO601_read_s_3.obj
 0001:00006850       _mdlStart                  10007850 f   sg_IO601_read_s_3.obj
 0001:00006980       _mdlOutputs                10007980 f   sg_IO601_read_s_3.obj
 0001:00006f20       _getPciDeviceAtSlot        10007f20 f   xpcruntime:xpcimports.obj
 0001:00007c00       _getPciDevice              10008c00 f   xpcruntime:xpcimports.obj
 0001:000092e7       _doexit                    1000a2e7 f   LIBCMT:crt0dat.obj
 0001:00009812       ___DllMainCRTStartup       1000a812 f   LIBCMT:dllcrt0.obj
 0001:00009e22       __shift                    1000ae22 f   LIBCMT:cvt.obj
 0001:00009e67       __cftoe2_l                 1000ae67 f   LIBCMT:cvt.obj
 0001:0000a425       __cftof2_l                 1000b425 f   LIBCMT:cvt.obj
 0001:0000b18a       _write_char                1000c18a f   LIBCMT:output.obj
 0001:0000b1bd       _write_string              1000c1bd f   LIBCMT:output.obj
 0001:0000d103       _flsall                    1000e103 f   LIBCMT:fflush.obj
 0001:0000e100       __unwind_handler4          1000f100 f   LIBCMT:exsup4.obj
 0001:0000e22a       _siglookup                 1000f22a f   LIBCMT:winsig.obj
 0001:0000e911       __onexit_nolock            1000f911 f   LIBCMT:onexit.obj
 0001:0000f066       _parse_cmdline             10010066 f   LIBCMT:stdargv.obj
 0001:0000f61d       ?CPtoLCID@@YAHH@Z          1001061d f   LIBCMT:mbctype.obj
 0001:0000f64c       ?setSBCS@@YAXPAUthreadmbcinfostruct@@@Z 1001064c f   LIBCMT:mbctype.obj
 0001:0000f6b0       ?setSBUpLow@@YAXPAUthreadmbcinfostruct@@@Z 100106b0 f   LIBCMT:mbctype.obj
 0001:0000f8e4       ?getSystemCP@@YAHH@Z       100108e4 f   LIBCMT:mbctype.obj
 0001:00011110       __unwind_handler           10012110 f   LIBCMT:exsup.obj
 0001:0001127a       ?x_ismbbtype_l@@YAHPAUlocaleinfo_struct@@IHH@Z 1001227a f   LIBCMT:ismbbyte.obj
 0001:000112e5       ?__crtLCMapStringA_stat@@YAHPAUlocaleinfo_struct@@KKPBDHPADHHH@Z 100122e5 f   LIBCMT:a_map.obj
 0001:00011512       ?__crtGetStringTypeA_stat@@YAHPAUlocaleinfo_struct@@KPBDHPAGHHH@Z 10012512 f   LIBCMT:a_str.obj
 0001:00013645       __hw_cw                    10014645 f   LIBCMT:_ieee87_.obj
 0001:000136d3       ___hw_cw_sse2              100146d3 f   LIBCMT:_ieee87_.obj
