 testmodel_1109_xpc

 Timestamp is 566adec0 (Fri Dec 11 15:33:36 2015)

 Preferred load address is 10000000

 Start         Length     Name                   Class
 0001:00000000 00015168H .text                   CODE
 0002:00000000 00000108H .idata$5                DATA
 0002:00000108 00000004H .CRT$XCA                DATA
 0002:0000010c 00000004H .CRT$XCZ                DATA
 0002:00000110 00000004H .CRT$XIA                DATA
 0002:00000114 00000014H .CRT$XIC                DATA
 0002:00000128 00000004H .CRT$XIZ                DATA
 0002:0000012c 00000004H .CRT$XPA                DATA
 0002:00000130 00000004H .CRT$XPX                DATA
 0002:00000134 00000004H .CRT$XPXA               DATA
 0002:00000138 00000004H .CRT$XPZ                DATA
 0002:0000013c 00000004H .CRT$XTA                DATA
 0002:00000140 00000004H .CRT$XTZ                DATA
 0002:00000150 000071e0H .rdata                  DATA
 0002:00007330 0000000cH .rdata$sxdata           DATA
 0002:0000733c 00000004H .rtc$IAA                DATA
 0002:00007340 00000004H .rtc$IZZ                DATA
 0002:00007344 00000004H .rtc$TAA                DATA
 0002:00007348 00000004H .rtc$TZZ                DATA
 0002:00007350 000002f4H .xdata$x                DATA
 0002:00007644 00000014H .idata$2                DATA
 0002:00007658 00000014H .idata$3                DATA
 0002:0000766c 00000108H .idata$4                DATA
 0002:00007774 000004b4H .idata$6                DATA
 0002:00007c30 000000c1H .edata                  DATA
 0003:00000000 000021c0H .data                   DATA
 0003:000021c0 000090e4H .bss                    DATA

  Address         Publics by Value              Rva+Base       Lib:Object

 0000:00000000       __except_list              00000000     <absolute>
 0000:00000003       ___safe_se_handler_count   00000003     <absolute>
 0000:00000000       ___ImageBase               10000000     <linker-defined>
 0001:00000000       _rt_TDelayInterpolate      10001000 f   testmodel_1109.obj
 0001:000001f0       _MWDSP_EPH_R_D             100011f0 f   testmodel_1109.obj
 0001:000002b0       _rt_roundd_snf             100012b0 f   testmodel_1109.obj
 0001:00000320       _MWDSP_EPH_R_B             10001320 f   testmodel_1109.obj
 0001:00003890       _MdlOutputs                10004890 f   testmodel_1109.obj
 0001:000038a0       _MdlUpdate                 100048a0 f   testmodel_1109.obj
 0001:000038b0       _MdlStart                  100048b0 f   testmodel_1109.obj
 0001:000038c0       _MdlTerminate              100048c0 f   testmodel_1109.obj
 0001:000038e0       _testmodel_1109            100048e0 f   testmodel_1109.obj
 0001:00005070       _rtGetInfF                 10006070 f   rtGetInf.obj
 0001:00005090       _rtGetMinusInfF            10006090 f   rtGetInf.obj
 0001:000050b0       _rtGetInf                  100060b0 f   rtGetInf.obj
 0001:000050d0       _rtGetMinusInf             100060d0 f   rtGetInf.obj
 0001:000050f0       _rtGetNaNF                 100060f0 f   rtGetNaN.obj
 0001:00005110       _rtGetNaN                  10006110 f   rtGetNaN.obj
 0001:00005130       _rt_InitInfAndNaN          10006130 f   rt_nonfinite.obj
 0001:00005180       _rtIsInf                   10006180 f   rt_nonfinite.obj
 0001:000051c0       _rtIsNaN                   100061c0 f   rt_nonfinite.obj
 0001:000051e0       _rt_ZCFcn                  100061e0 f   rt_zcfcn.obj
 0001:00005290       _testmodel_1109_InitializeDataMapInfo 10006290 f   testmodel_1109_capi.obj
 0001:000052f0       _changeStepSize            100062f0 f   xpctarget.obj
 0001:00005340       _MdlInitializeSizes        10006340 f   testmodel_1109.obj
 0001:00005340       _updateDiscreteEvents      10006340 f   xpctarget.obj
 0001:00005340       _MdlInitializeSampleTimes  10006340 f   testmodel_1109.obj
 0001:00005350       _DllMain@12                10006350 f   xpctarget.obj
 0001:00005360       _getrlmdlinfo              10006360 f   xpctarget.obj
 0001:000054f0       _getDLMVersion             100064f0 f   xpctarget.obj
 0001:000062a0       _sg_IO601_write_s_3        100072a0 f   sg_IO601_write_s_3.obj
 0001:00007220       _sg_IO601_setup_s_3        10008220 f   sg_IO601_setup_s_3.obj
 0001:00007d00       _sg_IO601_read_s_3         10008d00 f   sg_IO601_read_s_3.obj
 0001:00008010       _xpcInitProcs              10009010 f   xpcruntime:xpcimports.obj
 0001:00008d10       _GetPCIDeviceFull          10009d10 f   xpcruntime:xpcimports.obj
 0001:00008d58       _malloc                    10009d58 f   LIBCMT:malloc.obj
 0001:00008dec       __cfltcvt_init             10009dec f   LIBCMT:_fpinit_.obj
 0001:00008e4c       __fpmath                   10009e4c f   LIBCMT:_fpinit_.obj
 0001:00008e70       _ceil                      10009e70 f   LIBCMT:_ceil_pentium4_.obj
 0001:00008eb0       __ceil_pentium4            10009eb0 f   LIBCMT:_ceil_pentium4_.obj
 0001:00008f90       _floor                     10009f90 f   LIBCMT:_floor_pentium4_.obj
 0001:00008fd0       __floor_pentium4           10009fd0 f   LIBCMT:_floor_pentium4_.obj
 0001:000090c0       __allmul                   1000a0c0 f   LIBCMT:llmul.obj
 0001:00009100       _fmod                      1000a100 f   LIBCMT:_87fmod_.obj
 0001:0000910a       __CIfmod                   1000a10a f   LIBCMT:_87fmod_.obj
 0001:00009130       __ftol2_sse                1000a130 f   LIBCMT:ftol2.obj
 0001:00009139       __ftol2_pentium4           1000a139 f   LIBCMT:ftol2.obj
 0001:0000914c       __ftol2_sse_excpt          1000a14c f   LIBCMT:ftol2.obj
 0001:00009166       __ftol2                    1000a166 f   LIBCMT:ftol2.obj
 0001:000091e0       _sin                       1000a1e0 f   LIBCMT:_sin_.obj
 0001:00009220       __CIsin                    1000a220 f   LIBCMT:_sin_.obj
 0001:0000925b       __CIsin_default            1000a25b f   LIBCMT:_sin_.obj
 0001:0000926f       __sin_default              1000a26f     LIBCMT:_sin_.obj
 0001:00009309       _printf                    1000a309 f   LIBCMT:printf.obj
 0001:000093b0       __get_printf_count_output  1000a3b0 f   LIBCMT:printf.obj
 0001:000093d0       _memset                    1000a3d0 f   LIBCMT:memset.obj
 0001:0000944a       _free                      1000a44a f   LIBCMT:free.obj
 0001:00009484       ___iob_func                1000a484 f   LIBCMT:_file.obj
 0001:0000948a       ___initstdio               1000a48a f   LIBCMT:_file.obj
 0001:0000953b       ___endstdio                1000a53b f   LIBCMT:_file.obj
 0001:0000955b       __lock_file                1000a55b f   LIBCMT:_file.obj
 0001:0000959c       __lock_file2               1000a59c f   LIBCMT:_file.obj
 0001:000095ce       __unlock_file              1000a5ce f   LIBCMT:_file.obj
 0001:0000960a       __unlock_file2             1000a60a f   LIBCMT:_file.obj
 0001:00009639       @__security_check_cookie@4 1000a639 f   LIBCMT:secchk.obj
 0001:00009650       _memcpy                    1000a650 f   LIBCMT:memcpy.obj
 0001:000099c0       _memmove                   1000a9c0 f   LIBCMT:memmove.obj
 0001:00009d21       __fclose_nolock            1000ad21 f   LIBCMT:fclose.obj
 0001:00009d8e       _fclose                    1000ad8e f   LIBCMT:fclose.obj
 0001:00009e02       _sprintf                   1000ae02 f   LIBCMT:sprintf.obj
 0001:00009e90       _strncat                   1000ae90 f   LIBCMT:strncat.obj
 0001:00009fd0       _strncpy                   1000afd0 f   LIBCMT:strncpy.obj
 0001:0000a0f4       ___crtCorExitProcess       1000b0f4 f   LIBCMT:crt0dat.obj
 0001:0000a11f       ___crtExitProcess          1000b11f f   LIBCMT:crt0dat.obj
 0001:0000a137       __lockexit                 1000b137 f   LIBCMT:crt0dat.obj
 0001:0000a140       __unlockexit               1000b140 f   LIBCMT:crt0dat.obj
 0001:0000a149       __init_pointers            1000b149 f   LIBCMT:crt0dat.obj
 0001:0000a17c       __initterm_e               1000b17c f   LIBCMT:crt0dat.obj
 0001:0000a1a0       __cinit                    1000b1a0 f   LIBCMT:crt0dat.obj
 0001:0000a377       __exit                     1000b377 f   LIBCMT:crt0dat.obj
 0001:0000a38d       __cexit                    1000b38d f   LIBCMT:crt0dat.obj
 0001:0000a39c       __amsg_exit                1000b39c f   LIBCMT:crt0dat.obj
 0001:0000a3ba       _realloc                   1000b3ba f   LIBCMT:realloc.obj
 0001:0000a480       _strchr                    1000b480 f   LIBCMT:strchr.obj
 0001:0000a486       ___from_strstr_to_strchr   1000b486     LIBCMT:strchr.obj
 0001:0000a53e       _strncmp                   1000b53e f   LIBCMT:strncmp.obj
 0001:0000a5fe       __CRT_INIT@12              1000b5fe f   LIBCMT:dllcrt0.obj
 0001:0000a858       __DllMainCRTStartup@12     1000b858 f   LIBCMT:dllcrt0.obj
 0001:0000a87b       __GET_RTERRMSG             1000b87b f   LIBCMT:crt0msg.obj
 0001:0000a8a1       __NMSG_WRITE               1000b8a1 f   LIBCMT:crt0msg.obj
 0001:0000aa50       __FF_MSGBANNER             1000ba50 f   LIBCMT:crt0msg.obj
 0001:0000aa89       __heap_init                1000ba89 f   LIBCMT:heapinit.obj
 0001:0000aaa7       __heap_term                1000baa7 f   LIBCMT:heapinit.obj
 0001:0000aabb       __get_errno_from_oserr     1000babb f   LIBCMT:dosmap.obj
 0001:0000aafd       __errno                    1000bafd f   LIBCMT:dosmap.obj
 0001:0000ab10       ___doserrno                1000bb10 f   LIBCMT:dosmap.obj
 0001:0000ab23       __dosmaperr                1000bb23 f   LIBCMT:dosmap.obj
 0001:0000ab46       __initp_heap_handler       1000bb46 f   LIBCMT:handler.obj
 0001:0000ab55       __callnewh                 1000bb55 f   LIBCMT:handler.obj
 0001:0000ab7d       ??0_LocaleUpdate@@QAE@PAUlocaleinfo_struct@@@Z 1000bb7d f i LIBCMT:cvt.obj
 0001:0000ac04       __forcdecpt_l              1000bc04 f   LIBCMT:cvt.obj
 0001:0000ac78       __cropzeros_l              1000bc78 f   LIBCMT:cvt.obj
 0001:0000acfa       __positive                 1000bcfa f   LIBCMT:cvt.obj
 0001:0000ad16       __fassign_l                1000bd16 f   LIBCMT:cvt.obj
 0001:0000ad58       __fassign                  1000bd58 f   LIBCMT:cvt.obj
 0001:0000ad91       __forcdecpt                1000bd91 f   LIBCMT:cvt.obj
 0001:0000ada4       __cropzeros                1000bda4 f   LIBCMT:cvt.obj
 0001:0000af18       __cftoe_l                  1000bf18 f   LIBCMT:cvt.obj
 0001:0000afdf       __cftoe                    1000bfdf f   LIBCMT:cvt.obj
 0001:0000afff       __cftoa_l                  1000bfff f   LIBCMT:cvt.obj
 0001:0000b478       __cftof_l                  1000c478 f   LIBCMT:cvt.obj
 0001:0000b539       __cftog_l                  1000c539 f   LIBCMT:cvt.obj
 0001:0000b626       __cfltcvt_l                1000c626 f   LIBCMT:cvt.obj
 0001:0000b6ae       __cfltcvt                  1000c6ae f   LIBCMT:cvt.obj
 0001:0000b6d1       __initp_misc_cfltcvt_tab   1000c6d1 f   LIBCMT:cmiscdat.obj
 0001:0000b6f4       __setdefaultprecision      1000c6f4 f   LIBCMT:fp8.obj
 0001:0000b71c       ___libm_error_support      1000c71c f   LIBCMT:_libm_error_.obj
 0001:0000b9e8       __sse2_mathfcns_init       1000c9e8 f   LIBCMT:_mathfcns_.obj
 0001:0000b9f8       __ceil_default             1000c9f8 f   LIBCMT:_ceil_.obj
 0001:0000bad0       __floor_default            1000cad0 f   LIBCMT:_floor_.obj
 0001:0000bbb0       __cintrindisp2             1000cbb0 f   LIBCMT:_87cdisp_.obj
 0001:0000bbee       __cintrindisp1             1000cbee f   LIBCMT:_87cdisp_.obj
 0001:0000bc2b       __ctrandisp2               1000cc2b f   LIBCMT:_87cdisp_.obj
 0001:0000bdba       __ctrandisp1               1000cdba f   LIBCMT:_87cdisp_.obj
 0001:0000bded       __fload                    1000cded f   LIBCMT:_87cdisp_.obj
 0001:0000be30       __trandisp1                1000ce30 f   LIBCMT:_87disp_.obj
 0001:0000be97       __trandisp2                1000ce97 f   LIBCMT:_87disp_.obj
 0001:0000bf23       __rttospopde               1000cf23     LIBCMT:_87disp_.obj
 0001:0000bf28       __rttospop                 1000cf28     LIBCMT:_87disp_.obj
 0001:0000bf2a       __rtnospop                 1000cf2a     LIBCMT:_87disp_.obj
 0001:0000bf2c       __rttosnpop                1000cf2c     LIBCMT:_87disp_.obj
 0001:0000bf2d       __rtnospopde               1000cf2d     LIBCMT:_87disp_.obj
 0001:0000bf34       __rtzeropop                1000cf34     LIBCMT:_87disp_.obj
 0001:0000bf36       __rtzeronpop               1000cf36     LIBCMT:_87disp_.obj
 0001:0000bf3b       __rtonepop                 1000cf3b     LIBCMT:_87disp_.obj
 0001:0000bf3d       __rtonenpop                1000cf3d     LIBCMT:_87disp_.obj
 0001:0000bf42       __tosnan1                  1000cf42     LIBCMT:_87disp_.obj
 0001:0000bf6d       __nosnan2                  1000cf6d     LIBCMT:_87disp_.obj
 0001:0000bf6f       __tosnan2                  1000cf6f     LIBCMT:_87disp_.obj
 0001:0000bf97       __nan2                     1000cf97     LIBCMT:_87disp_.obj
 0001:0000bfd6       __rtindfpop                1000cfd6     LIBCMT:_87disp_.obj
 0001:0000bfd8       __rtindfnpop               1000cfd8     LIBCMT:_87disp_.obj
 0001:0000bfe9       __rttosnpopde              1000cfe9     LIBCMT:_87disp_.obj
 0001:0000bff3       __rtchsifneg               1000cff3     LIBCMT:_87disp_.obj
 0001:0000bffc       ___sse2_available_init     1000cffc f   LIBCMT:cpu_disp.obj
 0001:0000c010       __CIsin_pentium4           1000d010 f   LIBCMT:_sin_pentium4_.obj
 0001:0000c028       __sin_pentium4             1000d028     LIBCMT:_sin_pentium4_.obj
 0001:0000c1e0       __twoToTOS                 1000d1e0 f   LIBCMT:_common_.obj
 0001:0000c1f5       __load_CW                  1000d1f5 f   LIBCMT:_common_.obj
 0001:0000c20c       __convertTOStoQNaN         1000d20c f   LIBCMT:_common_.obj
 0001:0000c225       __fload_withFB             1000d225 f   LIBCMT:_common_.obj
 0001:0000c268       __checkTOS_withFB          1000d268 f   LIBCMT:_common_.obj
 0001:0000c27e       __fast_exit                1000d27e f   LIBCMT:_common_.obj
 0001:0000c28b       __math_exit                1000d28b f   LIBCMT:_common_.obj
 0001:0000c2b5       __check_overflow_exit      1000d2b5 f   LIBCMT:_common_.obj
 0001:0000c2c9       __check_range_exit         1000d2c9 f   LIBCMT:_common_.obj
 0001:0000c370       __startTwoArgErrorHandling 1000d370 f   LIBCMT:_genexcep_.obj
 0001:0000c387       __startOneArgErrorHandling 1000d387 f   LIBCMT:_genexcep_.obj
 0001:0000c3c3       __stbuf                    1000d3c3 f   LIBCMT:_sftbuf.obj
 0001:0000c45f       __ftbuf                    1000d45f f   LIBCMT:_sftbuf.obj
 0001:0000c53a       __output_l                 1000d53a f   LIBCMT:output.obj
 0001:0000d0e6       __initp_misc_invarg        1000e0e6 f   LIBCMT:invarg.obj
 0001:0000d0f5       __call_reportfault         1000e0f5 f   LIBCMT:invarg.obj
 0001:0000d21e       __invoke_watson            1000e21e f   LIBCMT:invarg.obj
 0001:0000d243       __invalid_parameter        1000e243 f   LIBCMT:invarg.obj
 0001:0000d270       __invalid_parameter_noinfo 1000e270 f   LIBCMT:invarg.obj
 0001:0000d280       __SEH_prolog4              1000e280 f   LIBCMT:sehprolg4.obj
 0001:0000d2c5       __SEH_epilog4              1000e2c5 f   LIBCMT:sehprolg4.obj
 0001:0000d2e0       __except_handler4          1000e2e0 f   LIBCMT:chandler4.obj
 0001:0000d46f       __VEC_memzero              1000e46f f   LIBCMT:p4_memset.obj
 0001:0000d529       __set_exp                  1000e529 f   LIBCMT:_util_.obj
 0001:0000d556       __sptype                   1000e556 f   LIBCMT:_util_.obj
 0001:0000d5bc       __decomp                   1000e5bc f   LIBCMT:_util_.obj
 0001:0000d67f       __raise_exc_ex             1000e67f f   LIBCMT:_fpexcept_.obj
 0001:0000d95b       __raise_exc                1000e95b f   LIBCMT:_fpexcept_.obj
 0001:0000d97e       __handle_exc               1000e97e f   LIBCMT:_fpexcept_.obj
 0001:0000db62       __set_errno_from_matherr   1000eb62 f   LIBCMT:_fpexcept_.obj
 0001:0000db8f       __errcode                  1000eb8f f   LIBCMT:_fpexcept_.obj
 0001:0000dbc3       __umatherr                 1000ebc3 f   LIBCMT:_fpexcept_.obj
 0001:0000dc63       __handle_qnan1             1000ec63 f   LIBCMT:_fpexcept_.obj
 0001:0000dcb8       __except1                  1000ecb8 f   LIBCMT:_fpexcept_.obj
 0001:0000dd82       __statfp                   1000ed82 f   LIBCMT:_fpctrl_.obj
 0001:0000dd92       __clrfp                    1000ed92 f   LIBCMT:_fpctrl_.obj
 0001:0000dda3       __ctrlfp                   1000eda3 f   LIBCMT:_fpctrl_.obj
 0001:0000ddce       __set_statfp               1000edce f   LIBCMT:_fpctrl_.obj
 0001:0000de26       ___set_fpsr_sse2           1000ee26 f   LIBCMT:_fpctrl_.obj
 0001:0000de98       __calloc_impl              1000ee98 f   LIBCMT:calloc_impl.obj
 0001:0000df1a       __ioinit                   1000ef1a f   LIBCMT:ioinit.obj
 0001:0000e15f       __ioterm                   1000f15f f   LIBCMT:ioinit.obj
 0001:0000e1b2       __fileno                   1000f1b2 f   LIBCMT:fileno.obj
 0001:0000e1d8       __malloc_crt               1000f1d8 f   LIBCMT:crtheap.obj
 0001:0000e21d       __calloc_crt               1000f21d f   LIBCMT:crtheap.obj
 0001:0000e269       __realloc_crt              1000f269 f   LIBCMT:crtheap.obj
 0001:0000e2b7       __fcloseall                1000f2b7 f   LIBCMT:closeall.obj
 0001:0000e353       __flush                    1000f353 f   LIBCMT:fflush.obj
 0001:0000e3bb       __fflush_nolock            1000f3bb f   LIBCMT:fflush.obj
 0001:0000e4dd       __flushall                 1000f4dd f   LIBCMT:fflush.obj
 0001:0000e4e6       __mtinitlocks              1000f4e6 f   LIBCMT:mlock.obj
 0001:0000e530       __mtdeletelocks            1000f530 f   LIBCMT:mlock.obj
 0001:0000e587       __unlock                   1000f587 f   LIBCMT:mlock.obj
 0001:0000e59e       __mtinitlocknum            1000f59e f   LIBCMT:mlock.obj
 0001:0000e660       __lock                     1000f660 f   LIBCMT:mlock.obj
 0001:0000e693       ___report_gsfailure        1000f693 f   LIBCMT:gs_report.obj
 0001:0000e799       __flsbuf                   1000f799 f   LIBCMT:_flsbuf.obj
 0001:0000e8fd       __write_nolock             1000f8fd f   LIBCMT:write.obj
 0001:0000effd       __write                    1000fffd f   LIBCMT:write.obj
 0001:0000f0d1       __VEC_memcpy               100100d1 f   LIBCMT:p4_memcpy.obj
 0001:0000f1d4       __close_nolock             100101d4 f   LIBCMT:close.obj
 0001:0000f270       __close                    10010270 f   LIBCMT:close.obj
 0001:0000f334       __freebuf                  10010334 f   LIBCMT:_freebuf.obj
 0001:0000f370       __local_unwind4            10010370 f   LIBCMT:exsup4.obj
 0001:0000f446       __seh_longjmp_unwind4@4    10010446 f   LIBCMT:exsup4.obj
 0001:0000f462       @_EH4_CallFilterFunc@8     10010462 f   LIBCMT:exsup4.obj
 0001:0000f479       @_EH4_TransferToHandler@8  10010479 f   LIBCMT:exsup4.obj
 0001:0000f492       @_EH4_GlobalUnwind2@8      10010492 f   LIBCMT:exsup4.obj
 0001:0000f4ab       @_EH4_LocalUnwind@16       100104ab f   LIBCMT:exsup4.obj
 0001:0000f4c2       ?terminate@@YAXXZ          100104c2 f   LIBCMT:hooks.obj
 0001:0000f4fb       __initp_eh_hooks           100104fb f   LIBCMT:hooks.obj
 0001:0000f50c       __initp_misc_winsig        1001050c f   LIBCMT:winsig.obj
 0001:0000f561       ___get_sigabrt             10010561 f   LIBCMT:winsig.obj
 0001:0000f56e       _raise                     1001056e f   LIBCMT:winsig.obj
 0001:0000f711       __initp_misc_rand_s        10010711 f   LIBCMT:rand_s.obj
 0001:0000f720       __initp_misc_purevirt      10010720 f   LIBCMT:inithelp.obj
 0001:0000f72f       __encoded_null             1001072f f   LIBCMT:tidtable.obj
 0001:0000f738       ___crtTlsAlloc@4           10010738 f   LIBCMT:tidtable.obj
 0001:0000f741       ___set_flsgetvalue         10010741 f   LIBCMT:tidtable.obj
 0001:0000f775       __mtterm                   10010775 f   LIBCMT:tidtable.obj
 0001:0000f7b2       __initptd                  100107b2 f   LIBCMT:tidtable.obj
 0001:0000f866       __getptd_noexit            10010866 f   LIBCMT:tidtable.obj
 0001:0000f8df       __getptd                   100108df f   LIBCMT:tidtable.obj
 0001:0000f8f9       __freefls@4                100108f9 f   LIBCMT:tidtable.obj
 0001:0000fa28       __freeptd                  10010a28 f   LIBCMT:tidtable.obj
 0001:0000fa96       __mtinit                   10010a96 f   LIBCMT:tidtable.obj
 0001:0000fcc7       ___onexitinit              10010cc7 f   LIBCMT:onexit.obj
 0001:0000fcf8       __onexit                   10010cf8 f   LIBCMT:onexit.obj
 0001:0000fd34       _atexit                    10010d34 f   LIBCMT:onexit.obj
 0001:0000fd4b       __RTC_Initialize           10010d4b f   LIBCMT:_initsect_.obj
 0001:0000fd71       __RTC_Terminate            10010d71 f   LIBCMT:_initsect_.obj
 0001:0000fda0       __ValidateImageBase        10010da0 f   LIBCMT:pesect.obj
 0001:0000fde0       __FindPESection            10010de0 f   LIBCMT:pesect.obj
 0001:0000fe30       __IsNonwritableInCurrentImage 10010e30 f   LIBCMT:pesect.obj
 0001:0000feec       _abort                     10010eec f   LIBCMT:abort.obj
 0001:0000ff1f       ___crtMessageBoxW          10010f1f f   LIBCMT:crtmboxw.obj
 0001:0001008b       _wcsncpy_s                 1001108b f   LIBCMT:wcsncpy_s.obj
 0001:00010158       _wcslen                    10011158 f   LIBCMT:wcslen.obj
 0001:00010173       _wcscat_s                  10011173 f   LIBCMT:wcscat_s.obj
 0001:000101e8       _wcscpy_s                  100111e8 f   LIBCMT:wcscpy_s.obj
 0001:0001024b       __set_error_mode           1001124b f   LIBCMT:errmode.obj
 0001:0001028a       __setenvp                  1001128a f   LIBCMT:stdenvp.obj
 0001:00010500       __setargv                  10011500 f   LIBCMT:stdargv.obj
 0001:000105bb       ___crtGetEnvironmentStringsA 100115bb f   LIBCMT:a_env.obj
 0001:00010652       __XcptFilter               10011652 f   LIBCMT:winxfltr.obj
 0001:0001079c       ___CppXcptFilter           1001179c f   LIBCMT:winxfltr.obj
 0001:000107bc       ___security_init_cookie    100117bc f   LIBCMT:gs_support.obj
 0001:00010860       _strlen                    10011860 f   LIBCMT:strlen.obj
 0001:000108f0       _strrchr                   100118f0 f   LIBCMT:strrchr.obj
 0001:00010b40       ___updatetmbcinfo          10011b40 f   LIBCMT:mbctype.obj
 0001:00010c60       __setmbcp_nolock           10011c60 f   LIBCMT:mbctype.obj
 0001:00010e49       __setmbcp                  10011e49 f   LIBCMT:mbctype.obj
 0001:00010fe3       ___initmbctable            10011fe3 f   LIBCMT:mbctype.obj
 0001:00011001       ___addlocaleref            10012001 f   LIBCMT:localref.obj
 0001:00011090       ___removelocaleref         10012090 f   LIBCMT:localref.obj
 0001:00011129       ___freetlocinfo            10012129 f   LIBCMT:localref.obj
 0001:00011274       __updatetlocinfoEx_nolock  10012274 f   LIBCMT:localref.obj
 0001:000112c1       ___updatetlocinfo          100122c1 f   LIBCMT:localref.obj
 0001:0001133a       __isdigit_l                1001233a f i LIBCMT:_ctype.obj
 0001:0001138b       _isdigit                   1001238b f i LIBCMT:_ctype.obj
 0001:000113b9       __tolower_l                100123b9 f   LIBCMT:tolower.obj
 0001:000114ce       _tolower                   100124ce f   LIBCMT:tolower.obj
 0001:000114fa       __atodbl_l                 100124fa f   LIBCMT:atodbl.obj
 0001:000115a2       __atoflt_l                 100125a2 f   LIBCMT:atodbl.obj
 0001:0001164a       _strcpy_s                  1001264a f   LIBCMT:strcpy_s.obj
 0001:000116a9       __fptostr                  100126a9 f   LIBCMT:_fptostr.obj
 0001:0001175c       ___dtold                   1001275c f   LIBCMT:_cfout_.obj
 0001:0001180f       __fltout2                  1001280f f   LIBCMT:_cfout_.obj
 0001:000118a0       __alldvrm                  100128a0 f   LIBCMT:lldvrm.obj
 0001:00011980       __aullshr                  10012980 f   LIBCMT:ullshr.obj
 0001:0001199f       __fptrap                   1001299f f   LIBCMT:crt0fp.obj
 0001:000119a8       __controlfp_s              100129a8 f   LIBCMT:_contrlfp_.obj
 0001:00011a07       __matherr                  10012a07 f   LIBCMT:_matherr_.obj
 0001:00011a0a       __frnd                     10012a0a f   LIBCMT:_frnd_.obj
 0001:00011a1e       __87except                 10012a1e f   LIBCMT:_87except_.obj
 0001:00011b5d       __isatty                   10012b5d f   LIBCMT:isatty.obj
 0001:00011bb3       __wctomb_s_l               10012bb3 f   LIBCMT:wctomb.obj
 0001:00011d08       _wctomb_s                  10012d08 f   LIBCMT:wctomb.obj
 0001:00011d25       __isleadbyte_l             10012d25 f i LIBCMT:_wctype.obj
 0001:00011d5d       _isleadbyte                10012d5d f i LIBCMT:_wctype.obj
 0001:00011d70       __aulldvrm                 10012d70 f   LIBCMT:ulldvrm.obj
 0001:00011e05       __crt_debugger_hook        10012e05 f   LIBCMT:dbghook.obj
 0001:00011e0d       __commit                   10012e0d f   LIBCMT:commit.obj
 0001:00011ee6       __lseeki64_nolock          10012ee6 f   LIBCMT:lseeki64.obj
 0001:00011f6b       __lseeki64                 10012f6b f   LIBCMT:lseeki64.obj
 0001:00012055       __getbuf                   10013055 f   LIBCMT:_getbuf.obj
 0001:0001209e       __putwch_nolock            1001309e f   LIBCMT:putwch.obj
 0001:000120e0       __mbtowc_l                 100130e0 f   LIBCMT:mbtowc.obj
 0001:000121f6       _mbtowc                    100131f6 f   LIBCMT:mbtowc.obj
 0001:00012210       __alloca_probe             10013210     LIBCMT:chkstk.obj
 0001:00012210       __chkstk                   10013210 f   LIBCMT:chkstk.obj
 0001:0001223b       __free_osfhnd              1001323b f   LIBCMT:osfinfo.obj
 0001:000122c1       __get_osfhandle            100132c1 f   LIBCMT:osfinfo.obj
 0001:0001232a       ___lock_fhandle            1001332a f   LIBCMT:osfinfo.obj
 0001:000123c9       __unlock_fhandle           100133c9 f   LIBCMT:osfinfo.obj
 0001:000123f0       __global_unwind2           100133f0 f   LIBCMT:exsup.obj
 0001:00012455       __local_unwind2            10013455 f   LIBCMT:exsup.obj
 0001:000124d9       __abnormal_termination     100134d9 f   LIBCMT:exsup.obj
 0001:000124fc       __NLG_Notify1              100134fc f   LIBCMT:exsup.obj
 0001:00012505       __NLG_Notify               10013505 f   LIBCMT:exsup.obj
 0001:0001251c       __NLG_Dispatch2            1001351c     LIBCMT:exsup.obj
 0001:0001251c       __NLG_Dispatch             1001351c     LIBCMT:exsup.obj
 0001:00012524       __NLG_Call                 10013524 f   LIBCMT:exsup.obj
 0001:00012526       __NLG_Return2              10013526     LIBCMT:exsup.obj
 0001:00012527       __freea                    10013527 f i LIBCMT:a_loc.obj
 0001:00012547       __msize                    10013547 f   LIBCMT:msize.obj
 0001:000125cd       __ismbblead                100135cd f   LIBCMT:ismbbyte.obj
 0001:000127cc       ___crtLCMapStringA         100137cc f   LIBCMT:a_map.obj
 0001:000128f9       ___crtGetStringTypeA       100138f9 f   LIBCMT:a_str.obj
 0001:00012939       ___free_lc_time            10013939 f   LIBCMT:inittime.obj
 0001:00012cb0       ___free_lconv_num          10013cb0 f   LIBCMT:initnum.obj
 0001:00012d19       ___free_lconv_mon          10013d19 f   LIBCMT:initmon.obj
 0001:00012e17       __isctype_l                10013e17 f   LIBCMT:isctype.obj
 0001:00012ecf       __ld12tod                  10013ecf f   LIBCMT:_intrncvt_.obj
 0001:00013420       __ld12tof                  10014420 f   LIBCMT:_intrncvt_.obj
 0001:00013971       ___strgtold12_l            10014971 f   LIBCMT:_strgtold_.obj
 0001:0001404d       _$I10_OUTPUT               1001504d f   LIBCMT:_x10fout_.obj
 0001:00014a73       __control87                10015a73 f i LIBCMT:_ieee87_.obj
 0001:00014d85       ___initconout              10015d85 f   LIBCMT:initcon.obj
 0001:00014da4       ___termconout              10015da4 f   LIBCMT:initcon.obj
 0001:00014dc0       __alloca_probe_16          10015dc0 f   LIBCMT:alloca16.obj
 0001:00014dd6       __alloca_probe_8           10015dd6     LIBCMT:alloca16.obj
 0001:00014df0       _strcspn                   10015df0 f   LIBCMT:strcspn.obj
 0001:00014e40       _strcmp                    10015e40 f   LIBCMT:strcmp.obj
 0001:00014ed0       _strpbrk                   10015ed0 f   LIBCMT:strpbrk.obj
 0001:00014f10       ___mtold12                 10015f10 f   LIBCMT:_mantold_.obj
 0001:00015100       ___ascii_strnicmp          10016100 f   LIBCMT:_strnicm.obj
 0001:00015162       _RtlUnwind@16              10016162 f   kernel32:KERNEL32.dll
 0002:00000000       __imp__GetProcAddress@8    10017000     kernel32:KERNEL32.dll
 0002:00000004       __imp__GetModuleHandleA@4  10017004     kernel32:KERNEL32.dll
 0002:00000008       __imp__HeapAlloc@12        10017008     kernel32:KERNEL32.dll
 0002:0000000c       __imp__GetLastError@0      1001700c     kernel32:KERNEL32.dll
 0002:00000010       __imp__HeapFree@12         10017010     kernel32:KERNEL32.dll
 0002:00000014       __imp__EnterCriticalSection@4 10017014     kernel32:KERNEL32.dll
 0002:00000018       __imp__LeaveCriticalSection@4 10017018     kernel32:KERNEL32.dll
 0002:0000001c       __imp__GetModuleHandleW@4  1001701c     kernel32:KERNEL32.dll
 0002:00000020       __imp__ExitProcess@4       10017020     kernel32:KERNEL32.dll
 0002:00000024       __imp__DecodePointer@4     10017024     kernel32:KERNEL32.dll
 0002:00000028       __imp__HeapReAlloc@16      10017028     kernel32:KERNEL32.dll
 0002:0000002c       __imp__WriteConsoleW@20    1001702c     kernel32:KERNEL32.dll
 0002:00000030       __imp__GetFileType@4       10017030     kernel32:KERNEL32.dll
 0002:00000034       __imp__GetStdHandle@4      10017034     kernel32:KERNEL32.dll
 0002:00000038       __imp__GetModuleFileNameW@12 10017038     kernel32:KERNEL32.dll
 0002:0000003c       __imp__GetCurrentThreadId@0 1001703c     kernel32:KERNEL32.dll
 0002:00000040       __imp__GetCommandLineA@0   10017040     kernel32:KERNEL32.dll
 0002:00000044       __imp__WriteFile@20        10017044     kernel32:KERNEL32.dll
 0002:00000048       __imp__HeapCreate@12       10017048     kernel32:KERNEL32.dll
 0002:0000004c       __imp__HeapDestroy@4       1001704c     kernel32:KERNEL32.dll
 0002:00000050       __imp__EncodePointer@4     10017050     kernel32:KERNEL32.dll
 0002:00000054       __imp__IsProcessorFeaturePresent@4 10017054     kernel32:KERNEL32.dll
 0002:00000058       __imp__UnhandledExceptionFilter@4 10017058     kernel32:KERNEL32.dll
 0002:0000005c       __imp__SetUnhandledExceptionFilter@4 1001705c     kernel32:KERNEL32.dll
 0002:00000060       __imp__IsDebuggerPresent@0 10017060     kernel32:KERNEL32.dll
 0002:00000064       __imp__TerminateProcess@8  10017064     kernel32:KERNEL32.dll
 0002:00000068       __imp__GetCurrentProcess@0 10017068     kernel32:KERNEL32.dll
 0002:0000006c       __imp__RaiseException@16   1001706c     kernel32:KERNEL32.dll
 0002:00000070       __imp__SetHandleCount@4    10017070     kernel32:KERNEL32.dll
 0002:00000074       __imp__InitializeCriticalSectionAndSpinCount@8 10017074     kernel32:KERNEL32.dll
 0002:00000078       __imp__GetStartupInfoW@4   10017078     kernel32:KERNEL32.dll
 0002:0000007c       __imp__DeleteCriticalSection@4 1001707c     kernel32:KERNEL32.dll
 0002:00000080       __imp__Sleep@4             10017080     kernel32:KERNEL32.dll
 0002:00000084       __imp__WideCharToMultiByte@32 10017084     kernel32:KERNEL32.dll
 0002:00000088       __imp__GetConsoleCP@0      10017088     kernel32:KERNEL32.dll
 0002:0000008c       __imp__GetConsoleMode@8    1001708c     kernel32:KERNEL32.dll
 0002:00000090       __imp__CloseHandle@4       10017090     kernel32:KERNEL32.dll
 0002:00000094       __imp__MultiByteToWideChar@24 10017094     kernel32:KERNEL32.dll
 0002:00000098       __imp__SetFilePointer@16   10017098     kernel32:KERNEL32.dll
 0002:0000009c       __imp__RtlUnwind@16        1001709c     kernel32:KERNEL32.dll
 0002:000000a0       __imp__LoadLibraryW@4      100170a0     kernel32:KERNEL32.dll
 0002:000000a4       __imp__TlsAlloc@0          100170a4     kernel32:KERNEL32.dll
 0002:000000a8       __imp__TlsGetValue@4       100170a8     kernel32:KERNEL32.dll
 0002:000000ac       __imp__TlsSetValue@8       100170ac     kernel32:KERNEL32.dll
 0002:000000b0       __imp__TlsFree@4           100170b0     kernel32:KERNEL32.dll
 0002:000000b4       __imp__InterlockedIncrement@4 100170b4     kernel32:KERNEL32.dll
 0002:000000b8       __imp__SetLastError@4      100170b8     kernel32:KERNEL32.dll
 0002:000000bc       __imp__InterlockedDecrement@4 100170bc     kernel32:KERNEL32.dll
 0002:000000c0       __imp__GetModuleFileNameA@12 100170c0     kernel32:KERNEL32.dll
 0002:000000c4       __imp__FreeEnvironmentStringsW@4 100170c4     kernel32:KERNEL32.dll
 0002:000000c8       __imp__GetEnvironmentStringsW@0 100170c8     kernel32:KERNEL32.dll
 0002:000000cc       __imp__QueryPerformanceCounter@4 100170cc     kernel32:KERNEL32.dll
 0002:000000d0       __imp__GetTickCount@0      100170d0     kernel32:KERNEL32.dll
 0002:000000d4       __imp__GetCurrentProcessId@0 100170d4     kernel32:KERNEL32.dll
 0002:000000d8       __imp__GetSystemTimeAsFileTime@4 100170d8     kernel32:KERNEL32.dll
 0002:000000dc       __imp__GetCPInfo@8         100170dc     kernel32:KERNEL32.dll
 0002:000000e0       __imp__GetACP@0            100170e0     kernel32:KERNEL32.dll
 0002:000000e4       __imp__GetOEMCP@0          100170e4     kernel32:KERNEL32.dll
 0002:000000e8       __imp__IsValidCodePage@4   100170e8     kernel32:KERNEL32.dll
 0002:000000ec       __imp__FlushFileBuffers@4  100170ec     kernel32:KERNEL32.dll
 0002:000000f0       __imp__SetStdHandle@8      100170f0     kernel32:KERNEL32.dll
 0002:000000f4       __imp__HeapSize@12         100170f4     kernel32:KERNEL32.dll
 0002:000000f8       __imp__LCMapStringW@24     100170f8     kernel32:KERNEL32.dll
 0002:000000fc       __imp__GetStringTypeW@16   100170fc     kernel32:KERNEL32.dll
 0002:00000100       __imp__CreateFileW@28      10017100     kernel32:KERNEL32.dll
 0002:00000104       \177KERNEL32_NULL_THUNK_DATA 10017104     kernel32:KERNEL32.dll
 0002:00000108       ___xc_a                    10017108     LIBCMT:crt0init.obj
 0002:0000010c       ___xc_z                    1001710c     LIBCMT:crt0init.obj
 0002:00000110       ___xi_a                    10017110     LIBCMT:crt0init.obj
 0002:00000128       ___xi_z                    10017128     LIBCMT:crt0init.obj
 0002:0000012c       ___xp_a                    1001712c     LIBCMT:crt0init.obj
 0002:00000138       ___xp_z                    10017138     LIBCMT:crt0init.obj
 0002:0000013c       ___xt_a                    1001713c     LIBCMT:crt0init.obj
 0002:00000140       ___xt_z                    10017140     LIBCMT:crt0init.obj
 0002:00000150       _testmodel_1109_M          10017150     testmodel_1109.obj
 0002:00000158       __real@3fe0000000000000    10017158     testmodel_1109.obj
 0002:00000160       __real@3d20000000000000    10017160     testmodel_1109.obj
 0002:00000168       __real@3ff0000000000000    10017168     testmodel_1109.obj
 0002:00000170       __real@0000000000000000    10017170     testmodel_1109.obj
 0002:00000178       __real@bfe0000000000000    10017178     testmodel_1109.obj
 0002:00000180       __real@4330000000000000    10017180     testmodel_1109.obj
 0002:00000188       __real@4024000000000000    10017188     testmodel_1109.obj
 0002:00000190       __real@41f0000000000000    10017190     testmodel_1109.obj
 0002:00000198       __real@4070000000000000    10017198     testmodel_1109.obj
 0002:000001a0       __real@41efffffffe00000    100171a0     testmodel_1109.obj
 0002:000001a8       __real@c1e0000000000000    100171a8     testmodel_1109.obj
 0002:000001b0       __real@41e0000000000000    100171b0     testmodel_1109.obj
 0002:000001b8       __real@4063a28c59d5433b    100171b8     testmodel_1109.obj
 0002:000001c0       __real@406fe00000000000    100171c0     testmodel_1109.obj
 0002:000001c8       ??_C@_0EG@MHLIOMNP@IO601?1ReadQueueSS?1For?5Iterator?5S@ 100171c8     testmodel_1109.obj
 0002:00000210       ??_C@_0N@GHIBKHFP@impulse1?4dat?$AA@ 10017210     testmodel_1109.obj
 0002:00000220       ??_C@_0FL@LIOEFJMO@IO601?1ReadQueueSS?1For?5Iterator?5S@ 10017220     testmodel_1109.obj
 0002:0000027c       ??_C@_0M@OHPPAEDN@ackdiff?4dat?$AA@ 1001727c     testmodel_1109.obj
 0002:00000288       ??_C@_0P@EFDAABGE@IO601?1Subtract?$AA@ 10017288     testmodel_1109.obj
 0002:00000298       ??_C@_0M@CMOCLKEL@impulse?4dat?$AA@ 10017298     testmodel_1109.obj
 0002:000002a4       ??_C@_0DM@ECEOPMFE@IO601?1ReadQueueSS?1For?5Iterator?5S@ 100172a4     testmodel_1109.obj
 0002:000002e0       ??_C@_0M@NHKNLCAG@pos_vel?4dat?$AA@ 100172e0     testmodel_1109.obj
 0002:000002ec       ??_C@_0BB@OGFHCCOL@IO601?1Counter?1p1?$AA@ 100172ec     testmodel_1109.obj
 0002:00000300       __real@40d3880000000000    10017300     testmodel_1109.obj
 0002:00000308       __real@c0d3880000000000    10017308     testmodel_1109.obj
 0002:00000310       ??_C@_0BM@FIBEALDL@IO601?1Data?5Type?5Conversion2?$AA@ 10017310     testmodel_1109.obj
 0002:0000032c       ??_C@_0BL@LEJAHLLN@IO601?1Data?5Type?5Conversion?$AA@ 1001732c     testmodel_1109.obj
 0002:00000348       ??_C@_0BM@HDDJFIPI@IO601?1Data?5Type?5Conversion1?$AA@ 10017348     testmodel_1109.obj
 0002:00000368       __real@8000000000000000    10017368     testmodel_1109.obj
 0002:00000370       __real@4000000000000000    10017370     testmodel_1109.obj
 0002:00000378       __real@40c86a0000000000    10017378     testmodel_1109.obj
 0002:00000380       ??_C@_02MMCGOBPI@ck?$AA@   10017380     testmodel_1109.obj
 0002:00000384       ??_C@_0BJ@CIDAFAFM@Error?5creating?5scope?510?6?$AA@ 10017384     testmodel_1109.obj
 0002:000003a0       ??_C@_0BI@PAJNFNID@Error?5creating?5scope?55?6?$AA@ 100173a0     testmodel_1109.obj
 0002:000003b8       ??_C@_0BI@PDBJIJON@Error?5creating?5scope?57?6?$AA@ 100173b8     testmodel_1109.obj
 0002:000003d0       ??_C@_0BI@PCNLODNK@Error?5creating?5scope?56?6?$AA@ 100173d0     testmodel_1109.obj
 0002:000003e8       ??_C@_0BI@PBFPDHLE@Error?5creating?5scope?54?6?$AA@ 100173e8     testmodel_1109.obj
 0002:00000400       ??_C@_0BI@PHJEPFFP@Error?5creating?5scope?51?6?$AA@ 10017400     testmodel_1109.obj
 0002:00000418       ??_C@_0BI@PFNCELAG@Error?5creating?5scope?52?6?$AA@ 10017418     testmodel_1109.obj
 0002:00000430       ??_C@_0BI@PEBACBDB@Error?5creating?5scope?53?6?$AA@ 10017430     testmodel_1109.obj
 0002:00000448       ??_C@_0BJ@CJPCDKGL@Error?5creating?5scope?511?6?$AA@ 10017448     testmodel_1109.obj
 0002:00000464       ??_C@_0BP@OMOIOGJO@testmodel_1109?1IO601?1Read?5?$CIv3?$CJ?$AA@ 10017464     testmodel_1109.obj
 0002:00000484       ??_C@_09OPKJHFF@Read?5?$CIv3?$CJ?$AA@ 10017484     testmodel_1109.obj
 0002:00000490       ??_C@_0CA@DBALLENM@testmodel_1109?1IO601?1Setup?5?$CIv3?$CJ?$AA@ 10017490     testmodel_1109.obj
 0002:000004b0       ??_C@_0L@DNFPLNJF@Setup?5?$CIv3?$CJ?$AA@ 100174b0     testmodel_1109.obj
 0002:000004bc       ??_C@_0DF@ECOLCIKP@testmodel_1109?1IO601?1Initialize?1@ 100174bc     testmodel_1109.obj
 0002:000004f4       ??_C@_0DL@DKMNDHH@testmodel_1109?1IO601?1Initialize?1@ 100174f4     testmodel_1109.obj
 0002:00000530       ??_C@_0DI@BDFDBDPB@testmodel_1109?1IO601?1Initialize?1@ 10017530     testmodel_1109.obj
 0002:00000568       ??_C@_0CO@JDHIMHLK@testmodel_1109?1IO601?1DefaultConf@ 10017568     testmodel_1109.obj
 0002:00000598       ??_C@_0CJ@NNCENNFA@testmodel_1109?1IO601?1CANSend?1Wri@ 10017598     testmodel_1109.obj
 0002:000005c4       ??_C@_0M@DDLOPEKH@Write?5?$CIv3?$CJ1?$AA@ 100175c4     testmodel_1109.obj
 0002:000005d0       ??_C@_0CI@HIHPJJFF@testmodel_1109?1IO601?1CANSend?1Wri@ 100175d0     testmodel_1109.obj
 0002:000005f8       ??_C@_0L@OMDHECFH@Write?5?$CIv3?$CJ?$AA@ 100175f8     testmodel_1109.obj
 0002:00000604       ??_C@_03HBFGMJOD@rt_?$AA@  10017604     testmodel_1109.obj
 0002:00000608       ??_C@_04EPKDLPPB@tout?$AA@ 10017608     testmodel_1109.obj
 0002:00000610       ??_C@_0BC@OJJPBDHH@FixedStepDiscrete?$AA@ 10017610     testmodel_1109.obj
 0002:00000628       __real@4049000000000000    10017628     testmodel_1109.obj
 0002:00000630       ??_C@_00CNPNBAHC@?$AA@     10017630     testmodel_1109.obj
 0002:00000638       __real@3f70624dd2f1a9fc    10017638     testmodel_1109.obj
 0002:00000640       _CAN_DATATYPE_GROUND       10017640     can_datatype_ground.obj
 0002:00000d58       __real@bff0000000000000    10017d58     rt_logging.obj
 0002:00000d88       ??_C@_0BI@INNPNFJN@Memory?5Allocation?5Error?$AA@ 10017d88     rtw_modelmap_utils.obj
 0002:00000da0       ??_C@_05KNFBNCOH@float?$AA@ 10017da0     testmodel_1109_capi.obj
 0002:00000da8       ??_C@_08NHGKGJKC@uint16_T?$AA@ 10017da8     testmodel_1109_capi.obj
 0002:00000db4       ??_C@_0P@IIMKEEHB@unsigned?5short?$AA@ 10017db4     testmodel_1109_capi.obj
 0002:00000dc4       ??_C@_06MOLJCAAB@int8_T?$AA@ 10017dc4     testmodel_1109_capi.obj
 0002:00000dcc       ??_C@_0M@MPLPCMBL@signed?5char?$AA@ 10017dcc     testmodel_1109_capi.obj
 0002:00000dd8       ??_C@_08CCMIKNJF@uint32_T?$AA@ 10017dd8     testmodel_1109_capi.obj
 0002:00000de4       ??_C@_0N@OFHMGPAL@unsigned?5int?$AA@ 10017de4     testmodel_1109_capi.obj
 0002:00000df4       ??_C@_07NCEHLPOC@uint8_T?$AA@ 10017df4     testmodel_1109_capi.obj
 0002:00000dfc       ??_C@_0N@HINIGIGN@CAN_DATATYPE?$AA@ 10017dfc     testmodel_1109_capi.obj
 0002:00000e0c       ??_C@_07MMLECJPG@numeric?$AA@ 10017e0c     testmodel_1109_capi.obj
 0002:00000e14       ??_C@_09JBMFCIMO@boolean_T?$AA@ 10017e14     testmodel_1109_capi.obj
 0002:00000e20       ??_C@_0O@PPAIJIHF@unsigned?5char?$AA@ 10017e20     testmodel_1109_capi.obj
 0002:00000e30       ??_C@_07BLNHOAMI@int32_T?$AA@ 10017e30     testmodel_1109_capi.obj
 0002:00000e38       ??_C@_03JBIPMCLC@int?$AA@  10017e38     testmodel_1109_capi.obj
 0002:00000e3c       ??_C@_06CNMIJIPB@real_T?$AA@ 10017e3c     testmodel_1109_capi.obj
 0002:00000e44       ??_C@_06BNJCAIGJ@double?$AA@ 10017e44     testmodel_1109_capi.obj
 0002:00000e4c       ??_C@_02GPBJIKLE@Ts?$AA@   10017e4c     testmodel_1109_capi.obj
 0002:00000e50       ??_C@_0DJ@BGPIJOEG@IO601?1ReadQueueSS?1For?5Iterator?5S@ 10017e50     testmodel_1109_capi.obj
 0002:00000e90       ??_C@_0EB@NLNMHBDB@IO601?1ReadQueueSS?1For?5Iterator?5S@ 10017e90     testmodel_1109_capi.obj
 0002:00000ed4       ??_C@_02LNFHGPBG@X0?$AA@   10017ed4     testmodel_1109_capi.obj
 0002:00000ed8       ??_C@_0L@HPPBCIFA@TruthTable?$AA@ 10017ed8     testmodel_1109_capi.obj
 0002:00000ee4       ??_C@_0CO@JPDJMNEH@IO601?1CANSend?1J?9K?5Flip?9Flop1?1J?9K@ 10017ee4     testmodel_1109_capi.obj
 0002:00000f14       ??_C@_0CN@LFHKPKNC@IO601?1CANSend?1J?9K?5Flip?9Flop1?1J?9K@ 10017f14     testmodel_1109_capi.obj
 0002:00000f44       ??_C@_0CN@FLJIFFFH@IO601?1ReadQueueSS?1For?5Iterator?5S@ 10017f44     testmodel_1109_capi.obj
 0002:00000f74       ??_C@_0CN@LODOIBMD@IO601?1ReadQueueSS?1For?5Iterator?5S@ 10017f74     testmodel_1109_capi.obj
 0002:00000fa4       ??_C@_0DA@PGHGJDOF@IO601?1ReadQueueSS?1For?5Iterator?5S@ 10017fa4     testmodel_1109_capi.obj
 0002:00000fd4       ??_C@_0CG@MLOIINPD@IO601?1Initialize?1QuitError?1Write@ 10017fd4     testmodel_1109_capi.obj
 0002:00000ffc       ??_C@_0CF@GHMGCHLH@IO601?1Initialize?1QuitError?1Const@ 10017ffc     testmodel_1109_capi.obj
 0002:00001024       ??_C@_0CF@HONNBGPG@IO601?1Initialize?1QuitError?1Const@ 10018024     testmodel_1109_capi.obj
 0002:0000104c       ??_C@_0CM@DMHGIEPM@IO601?1Initialize?1InitialPosition@ 1001804c     testmodel_1109_capi.obj
 0002:00001078       ??_C@_0CL@MNMCNCKF@IO601?1Initialize?1InitialPosition@ 10018078     testmodel_1109_capi.obj
 0002:000010a4       ??_C@_0CL@ICIDEEGC@IO601?1Initialize?1InitialPosition@ 100180a4     testmodel_1109_capi.obj
 0002:000010d0       ??_C@_0CL@KJKOBHKB@IO601?1Initialize?1InitialPosition@ 100180d0     testmodel_1109_capi.obj
 0002:000010fc       ??_C@_0CJ@DMIMNNLK@IO601?1Initialize?1GetState?$CIms?$CJ?1Wr@ 100180fc     testmodel_1109_capi.obj
 0002:00001128       ??_C@_0CF@KBLHOCOH@IO601?1Initialize?1GetState?$CIms?$CJ?1st@ 10018128     testmodel_1109_capi.obj
 0002:00001150       ??_C@_0CI@DIADENEG@IO601?1Initialize?1GetState?$CIms?$CJ?1Ti@ 10018150     testmodel_1109_capi.obj
 0002:00001178       ??_C@_0CK@IHMBEOEM@IO601?1Initialize?1GetState?$CIms?$CJ?1Ge@ 10018178     testmodel_1109_capi.obj
 0002:000011a4       ??_C@_0CG@EBNFNLLB@IO601?1Initialize?1GetState?$CIms?$CJ?1Da@ 100181a4     testmodel_1109_capi.obj
 0002:000011cc       ??_C@_0BM@MBPDBCPP@IO601?1CANSend?1movVel?1FragSt?$AA@ 100181cc     testmodel_1109_capi.obj
 0002:000011e8       ??_C@_0BM@GJHFDHOG@IO601?1CANSend?1movVel?1FragEn?$AA@ 100181e8     testmodel_1109_capi.obj
 0002:00001204       ??_C@_0BM@JJFBFHEJ@IO601?1CANSend?1movVel?1D?9Len1?$AA@ 10018204     testmodel_1109_capi.obj
 0002:00001220       ??_C@_0BL@JNIPDDJ@IO601?1CANSend?1movVel?1D?9Len?$AA@ 10018220     testmodel_1109_capi.obj
 0002:0000123c       ??_C@_0BJ@FJNMGFPN@IO601?1CANSend?1movVel?1Cmd?$AA@ 1001823c     testmodel_1109_capi.obj
 0002:00001258       ??_C@_0BL@PIDBKHJM@IO601?1CANSend?1STOP?1StopCmd?$AA@ 10018258     testmodel_1109_capi.obj
 0002:00001274       ??_C@_0BL@CDKHMJMJ@IO601?1CANSend?1STOP?1DataLen?$AA@ 10018274     testmodel_1109_capi.obj
 0002:00001290       ??_C@_0CH@NNHMAEGH@IO601?1CANSend?1GetState?5?$CIonce?$CJ?1po@ 10018290     testmodel_1109_capi.obj
 0002:000012b8       ??_C@_0CL@MJMCPGNE@IO601?1CANSend?1GetState?5?$CIonce?$CJ?1Ge@ 100182b8     testmodel_1109_capi.obj
 0002:000012e4       ??_C@_0CI@GELOMNMJ@IO601?1CANSend?1GetState?5?$CIonce?$CJ?1Co@ 100182e4     testmodel_1109_capi.obj
 0002:0000130c       ??_C@_0CI@EPJDJOAK@IO601?1CANSend?1GetState?5?$CIonce?$CJ?1Co@ 1001830c     testmodel_1109_capi.obj
 0002:00001334       ??_C@_0BP@MPHBHALB@IO601?1DefaultConfig?1Write?5?$CIv3?$CJ?$AA@ 10018334     testmodel_1109_capi.obj
 0002:00001354       ??_C@_0BO@FIGKIEHE@IO601?1DefaultConfig?1Constant6?$AA@ 10018354     testmodel_1109_capi.obj
 0002:00001374       ??_C@_0BO@HDEHNHLH@IO601?1DefaultConfig?1Constant5?$AA@ 10018374     testmodel_1109_capi.obj
 0002:00001394       ??_C@_0BO@GKFMOGPG@IO601?1DefaultConfig?1Constant4?$AA@ 10018394     testmodel_1109_capi.obj
 0002:000013b4       ??_C@_0BO@CFBNHADB@IO601?1DefaultConfig?1Constant3?$AA@ 100183b4     testmodel_1109_capi.obj
 0002:000013d4       ??_C@_0BO@DMAGEBHA@IO601?1DefaultConfig?1Constant2?$AA@ 100183d4     testmodel_1109_capi.obj
 0002:000013f4       ??_C@_0BO@BHCLBCLD@IO601?1DefaultConfig?1Constant1?$AA@ 100183f4     testmodel_1109_capi.obj
 0002:00001414       ??_C@_0BK@EACJAMNO@IO601?1CANSend?1Write?5?$CIv3?$CJ1?$AA@ 10018414     testmodel_1109_capi.obj
 0002:00001430       ??_C@_0BJ@KHNJLINA@IO601?1CANSend?1Write?5?$CIv3?$CJ?$AA@ 10018430     testmodel_1109_capi.obj
 0002:0000144c       ??_C@_0BG@PMNEJEBH@IO601?1CANSend?1SendVel?$AA@ 1001844c     testmodel_1109_capi.obj
 0002:00001464       ??_C@_0BH@IOBDCJHG@IO601?1CANSend?1SendStop?$AA@ 10018464     testmodel_1109_capi.obj
 0002:0000147c       ??_C@_05LPIJGKJ@Value?$AA@ 1001847c     testmodel_1109_capi.obj
 0002:00001484       ??_C@_0BC@EDCEHLKH@IO601?1CANSend?1Cur?$AA@ 10018484     testmodel_1109_capi.obj
 0002:00001498       ??_C@_0O@LILIEJBO@InitialOutput?$AA@ 10018498     testmodel_1109_capi.obj
 0002:000014a8       ??_C@_05CLADCAAM@After?$AA@ 100184a8     testmodel_1109_capi.obj
 0002:000014b0       ??_C@_06NDPGJMFM@Before?$AA@ 100184b0     testmodel_1109_capi.obj
 0002:000014b8       ??_C@_04OKOFBOPB@Time?$AA@ 100184b8     testmodel_1109_capi.obj
 0002:000014c0       ??_C@_03PGECKHFE@P11?$AA@  100184c0     testmodel_1109_capi.obj
 0002:000014c4       ??_C@_03OPFJJGBF@P10?$AA@  100184c4     testmodel_1109_capi.obj
 0002:000014c8       ??_C@_02GCIGIFOH@P9?$AA@   100184c8     testmodel_1109_capi.obj
 0002:000014cc       ??_C@_02HLJNLEKG@P8?$AA@   100184cc     testmodel_1109_capi.obj
 0002:000014d0       ??_C@_0BB@PGJCMMJJ@IO601?1Setup?5?$CIv3?$CJ?$AA@ 100184d0     testmodel_1109_capi.obj
 0002:000014e4       ??_C@_02PMAFKIGJ@P7?$AA@   100184e4     testmodel_1109_capi.obj
 0002:000014e8       ??_C@_02OFBOJJCI@P6?$AA@   100184e8     testmodel_1109_capi.obj
 0002:000014ec       ??_C@_02MODDMKOL@P5?$AA@   100184ec     testmodel_1109_capi.obj
 0002:000014f0       ??_C@_02NHCIPLKK@P4?$AA@   100184f0     testmodel_1109_capi.obj
 0002:000014f4       ??_C@_02JIGJGNGN@P3?$AA@   100184f4     testmodel_1109_capi.obj
 0002:000014f8       ??_C@_02IBHCFMCM@P2?$AA@   100184f8     testmodel_1109_capi.obj
 0002:000014fc       ??_C@_02KKFPAPOP@P1?$AA@   100184fc     testmodel_1109_capi.obj
 0002:00001500       ??_C@_0BA@KCDIBHOF@IO601?1Read?5?$CIv3?$CJ?$AA@ 10018500     testmodel_1109_capi.obj
 0002:00001510       ??_C@_0P@JEHHPNLL@IO601?1Counter1?$AA@ 10018510     testmodel_1109_capi.obj
 0002:00001520       ??_C@_08OOPKMNBD@HitValue?$AA@ 10018520     testmodel_1109_capi.obj
 0002:0000152c       ??_C@_0N@LIAJDDBE@InitialCount?$AA@ 1001852c     testmodel_1109_capi.obj
 0002:0000153c       ??_C@_0O@ECBIDPLD@IO601?1Counter?$AA@ 1001853c     testmodel_1109_capi.obj
 0002:0000154c       ??_C@_0L@JNLMCMDB@PhaseDelay?$AA@ 1001854c     testmodel_1109_capi.obj
 0002:00001558       ??_C@_0L@HCJBDGGO@PulseWidth?$AA@ 10018558     testmodel_1109_capi.obj
 0002:00001564       ??_C@_06JOFJHOEH@Period?$AA@ 10018564     testmodel_1109_capi.obj
 0002:0000156c       ??_C@_09IHLJOMI@Amplitude?$AA@ 1001856c     testmodel_1109_capi.obj
 0002:00001578       ??_C@_0BB@CFEOEMDC@InitialCondition?$AA@ 10018578     testmodel_1109_capi.obj
 0002:0000158c       ??_C@_05NAMIGJNB@vinit?$AA@ 1001858c     testmodel_1109_capi.obj
 0002:00001594       ??_C@_0BG@FGFMMBEM@IO601?1Detect?5Increase?$AA@ 10018594     testmodel_1109_capi.obj
 0002:000015b0       ??_C@_0EO@IDOHIOEO@IO601?1ReadQueueSS?1For?5Iterator?5S@ 100185b0     testmodel_1109_capi.obj
 0002:00001600       ??_C@_0DM@GJGDKPJH@IO601?1ReadQueueSS?1For?5Iterator?5S@ 10018600     testmodel_1109_capi.obj
 0002:00001640       ??_C@_0EA@OMHPAAMO@IO601?1ReadQueueSS?1For?5Iterator?5S@ 10018640     testmodel_1109_capi.obj
 0002:00001680       ??_C@_0EA@KDDOJGAJ@IO601?1ReadQueueSS?1For?5Iterator?5S@ 10018680     testmodel_1109_capi.obj
 0002:000016c0       ??_C@_0EA@LKCFKHEI@IO601?1ReadQueueSS?1For?5Iterator?5S@ 100186c0     testmodel_1109_capi.obj
 0002:00001700       ??_C@_0EA@JBAIPEIL@IO601?1ReadQueueSS?1For?5Iterator?5S@ 10018700     testmodel_1109_capi.obj
 0002:00001740       ??_C@_0DC@IJBCCPPK@IO601?1CANSend?1J?9K?5Flip?9Flop1?1J?9K@ 10018740     testmodel_1109_capi.obj
 0002:00001774       ??_C@_0DB@FBNIKHMD@IO601?1CANSend?1J?9K?5Flip?9Flop1?1J?9K@ 10018774     testmodel_1109_capi.obj
 0002:000017a8       ??_C@_0DF@BDCLDKAO@IO601?1ReadQueueSS?1For?5Iterator?5S@ 100187a8     testmodel_1109_capi.obj
 0002:000017e0       ??_C@_0DF@KDAALEP@IO601?1ReadQueueSS?1For?5Iterator?5S@ 100187e0     testmodel_1109_capi.obj
 0002:00001818       ??_C@_0DG@KDHBEPNH@IO601?1ReadQueueSS?1For?5Iterator?5S@ 10018818     testmodel_1109_capi.obj
 0002:00001850       ??_C@_0DG@DEMKODMA@IO601?1ReadQueueSS?1For?5Iterator?5S@ 10018850     testmodel_1109_capi.obj
 0002:00001888       ??_C@_0DK@FKKFFFEK@IO601?1ReadQueueSS?1For?5Iterator?5S@ 10018888     testmodel_1109_capi.obj
 0002:000018c4       ??_C@_0CE@PMCFDNCF@IO601?1Initialize?1QuitError?1CAN?5P@ 100188c4     testmodel_1109_capi.obj
 0002:000018e8       ??_C@_0CF@FFPAEFDF@IO601?1Initialize?1QuitError?1Const@ 100188e8     testmodel_1109_capi.obj
 0002:00001910       ??_C@_0CK@BLPPNFHO@IO601?1Initialize?1InitialPosition@ 10018910     testmodel_1109_capi.obj
 0002:0000193c       ??_C@_0CK@EDGHPCNG@IO601?1Initialize?1InitialPosition@ 1001893c     testmodel_1109_capi.obj
 0002:00001968       ??_C@_0CI@KAIPLBJP@IO601?1Initialize?1GetState?$CIms?$CJ?1CA@ 10018968     testmodel_1109_capi.obj
 0002:00001990       ??_C@_0CI@FDPHFBKB@IO601?1Initialize?1GetState?$CIms?$CJ?1Co@ 10018990     testmodel_1109_capi.obj
 0002:000019b8       ??_C@_0BP@BMECKJAG@IO601?1CANSend?1movVel?1CAN?5Pack2?$AA@ 100189b8     testmodel_1109_capi.obj
 0002:000019d8       ??_C@_0BP@DHGPPKMF@IO601?1CANSend?1movVel?1CAN?5Pack1?$AA@ 100189d8     testmodel_1109_capi.obj
 0002:000019f8       ??_C@_0CB@KFFMMOEI@IO601?1CANSend?1movVel?1TC?5UI32?9UI8@ 100189f8     testmodel_1109_capi.obj
 0002:00001a1c       ??_C@_0CJ@NJHCKNBO@IO601?1CANSend?1movVel?1MATLAB?5Func@ 10018a1c     testmodel_1109_capi.obj
 0002:00001a48       ??_C@_0CJ@PCFPPONN@IO601?1CANSend?1movVel?1MATLAB?5Func@ 10018a48     testmodel_1109_capi.obj
 0002:00001a74       ??_C@_0BN@LENAFBFL@IO601?1CANSend?1STOP?1CAN?5Pack2?$AA@ 10018a74     testmodel_1109_capi.obj
 0002:00001a94       ??_C@_0CI@NIIHLLDA@IO601?1CANSend?1GetState?5?$CIonce?$CJ?1CA@ 10018a94     testmodel_1109_capi.obj
 0002:00001abc       ??_C@_0BH@NNPFPPJJ@IO601?1Initialize?1Step3?$AA@ 10018abc     testmodel_1109_capi.obj
 0002:00001ad4       ??_C@_0BH@OPMDJNBL@IO601?1Initialize?1Step1?$AA@ 10018ad4     testmodel_1109_capi.obj
 0002:00001aec       ??_C@_0BG@EHFDDBHJ@IO601?1Initialize?1Step?$AA@ 10018aec     testmodel_1109_capi.obj
 0002:00001b04       ??_C@_06CFNEEADJ@U?$CIk?91?$CJ?$AA@ 10018b04     testmodel_1109_capi.obj
 0002:00001b0c       ??_C@_0CD@GOMLHMHO@IO601?1Detect?5Increase?1Delay?5Inpu@ 10018b0c     testmodel_1109_capi.obj
 0002:00001b30       ??_C@_0DA@FJLBFPLL@IO601?1Detect?5Increase?1FixPt?5Rela@ 10018b30     testmodel_1109_capi.obj
 0002:00001b60       ??_C@_0BO@MPHOKBEO@IO601?1DefaultConfig?1CAN?5Pack1?$AA@ 10018b60     testmodel_1109_capi.obj
 0002:00001b80       ??_C@_0BN@JFOKNHAM@IO601?1DefaultConfig?1CAN?5Pack?$AA@ 10018b80     testmodel_1109_capi.obj
 0002:00001ba0       ??_C@_0BN@MNHCPAKE@IO601?1DefaultConfig?1Constant?$AA@ 10018ba0     testmodel_1109_capi.obj
 0002:00001bc0       ??_C@_0BH@DGOEPCKB@IO601?1CANSend?1Product2?$AA@ 10018bc0     testmodel_1109_capi.obj
 0002:00001bd8       ??_C@_0BG@CPGPAGCK@IO601?1CANSend?1Product?$AA@ 10018bd8     testmodel_1109_capi.obj
 0002:00001bf0       ??_C@_0BO@IAOLPOIJ@IO601?1CANSend?1MATLAB?5Function?$AA@ 10018bf0     testmodel_1109_capi.obj
 0002:00001c10       ??_C@_0BG@FENAEKFA@IO601?1Transport?5Delay?$AA@ 10018c10     testmodel_1109_capi.obj
 0002:00001c28       ??_C@_0M@CLGOOAGC@IO601?1Step5?$AA@ 10018c28     testmodel_1109_capi.obj
 0002:00001c34       ??_C@_0M@DCHFNBCD@IO601?1Step4?$AA@ 10018c34     testmodel_1109_capi.obj
 0002:00001c40       ??_C@_0M@EPACCFGG@IO601?1Step1?$AA@ 10018c40     testmodel_1109_capi.obj
 0002:00001c4c       ??_C@_0BD@MDHIKNKI@IO601?1Read?5?$CIv3?$CJ?1p2?$AA@ 10018c4c     testmodel_1109_capi.obj
 0002:00001c60       ??_C@_0BD@OIFFPOGL@IO601?1Read?5?$CIv3?$CJ?1p1?$AA@ 10018c60     testmodel_1109_capi.obj
 0002:00001c74       ??_C@_0BC@OHKIOJED@IO601?1Counter1?1p2?$AA@ 10018c74     testmodel_1109_capi.obj
 0002:00001c88       ??_C@_0BC@MMIFLKIA@IO601?1Counter1?1p1?$AA@ 10018c88     testmodel_1109_capi.obj
 0002:00001c9c       ??_C@_0BB@MNHKHBCI@IO601?1Counter?1p2?$AA@ 10018c9c     testmodel_1109_capi.obj
 0002:00001cb0       ??_C@_0O@LELDHBHI@IO601?1Product?$AA@ 10018cb0     testmodel_1109_capi.obj
 0002:00001cc0       ??_C@_0BH@EAOHHBMP@IO601?1Pulse?5Generator2?$AA@ 10018cc0     testmodel_1109_capi.obj
 0002:00001cd8       ??_C@_0BH@GLMKCCAM@IO601?1Pulse?5Generator1?$AA@ 10018cd8     testmodel_1109_capi.obj
 0002:00001cf0       ??_C@_0BG@PAKNPIGK@IO601?1Pulse?5Generator?$AA@ 10018cf0     testmodel_1109_capi.obj
 0002:00001d08       ??_C@_0BP@OIHNNGJH@IO601?1Discrete?9Time?5Integrator?$AA@ 10018d08     testmodel_1109_capi.obj
 0002:00001d28       ??_C@_0M@CNMNLDCN@IO601?1Clock?$AA@ 10018d28     testmodel_1109_capi.obj
 0002:000031d0       _serialfifoground          1001a1d0     xpc_datatype_ground.obj
 0002:000031dc       _bcmsg1553ground           1001a1dc     xpc_datatype_ground.obj
 0002:000031ec       _bcstatground              1001a1ec     xpc_datatype_ground.obj
 0002:00003204       _bmmsg1553ground           1001a204     xpc_datatype_ground.obj
 0002:00003214       ??_C@_0P@OBNPAIIM@testmodel_1109?$AA@ 1001a214     xpctarget.obj
 0002:00003228       _ptsetfilename             1001a228     xpctarget.obj
 0002:00003230       _testmodel_1109_BIO        1001a230     xpctarget.obj
 0002:00003510       _testmodel_1109_LBL        1001a510     xpctarget.obj
 0002:000037f0       _testmodel_1109_SID        1001a7f0     xpctarget.obj
 0002:00003acc       _xpcMMI                    1001aacc     xpctarget.obj
 0002:00003ae8       _testmodel_1109_PT         1001aae8     xpctarget.obj
 0002:00003d50       _xpcparamsMMI              1001ad50     xpctarget.obj
 0002:00003d68       _xmlfile                   1001ad68     xpctarget.obj
 0002:00003d70       ??_C@_0L@CHBJKKFC@xpceSetVar?$AA@ 1001ad70     xpctarget.obj
 0002:00003d80       __real@3fb999999999999a    1001ad80     xpctarget.obj
 0002:00003d88       ??_C@_03MNEDIJEE@6?43?$AA@ 1001ad88     xpctarget.obj
 0002:00003d90       ??_C@_0ED@LKHIFFLC@Wrong?5number?5of?5input?5arguments?5@ 1001ad90     sg_IO601_write_s_3.obj
 0002:00003dd4       ??_C@_0CI@NFFNBHJA@?$CFs?5?$CIbus?5?$CFd?0?5slot?5?$CFd?$CJ?3?5board?5not?5@ 1001add4     sg_IO601_write_s_3.obj
 0002:00003dfc       ??_C@_0BA@PEEBPDNK@Speedgoat?5IO601?$AA@ 1001adfc     sg_IO601_write_s_3.obj
 0002:00003e10       __real@3fa999999999999a    1001ae10     sg_IO601_setup_s_3.obj
 0002:00003e18       ??_C@_0CC@JOAAOKEM@?$CFs?3?5Failed?5to?5start?5CAN?5on?5port?5@ 1001ae18     sg_IO601_setup_s_3.obj
 0002:00003e3c       ??_C@_0CJ@GOBCKFJL@?$CFs?3?5Failed?5to?5configure?5RX?5queue@ 1001ae3c     sg_IO601_setup_s_3.obj
 0002:00003e68       ??_C@_0CM@NKLCILNM@Failed?5to?5set?5EXT?5acceptance?5mas@ 1001ae68     sg_IO601_setup_s_3.obj
 0002:00003e94       ??_C@_0CM@DBIFDANP@Failed?5to?5set?5EXT?5acceptance?5mas@ 1001ae94     sg_IO601_setup_s_3.obj
 0002:00003ec0       ??_C@_0DA@FAJCIGJF@?$CFs?3?5Failed?5to?5set?5STD?5acceptance@ 1001aec0     sg_IO601_setup_s_3.obj
 0002:00003ef0       ??_C@_0DA@LLKFDNJG@?$CFs?3?5Failed?5to?5set?5STD?5acceptance@ 1001aef0     sg_IO601_setup_s_3.obj
 0002:00003f20       ??_C@_0BJ@PGMEJPIO@?$CFs?3?5Failed?5to?5init?5CAN?52?$AA@ 1001af20     sg_IO601_setup_s_3.obj
 0002:00003f3c       ??_C@_0CC@CCDBKGEL@initialize?5Speedgoat?5IO601?5CAN?52@ 1001af3c     sg_IO601_setup_s_3.obj
 0002:00003f60       ??_C@_0CC@LFCNLJIP@?$CFs?3?5Failed?5to?5start?5CAN?5on?5port?5@ 1001af60     sg_IO601_setup_s_3.obj
 0002:00003f84       ??_C@_0CJ@GMFEBLMC@?$CFs?3?5Failed?5to?5configure?5RX?5queue@ 1001af84     sg_IO601_setup_s_3.obj
 0002:00003fb0       ??_C@_0CM@NIPEDFIF@Failed?5to?5set?5EXT?5acceptance?5mas@ 1001afb0     sg_IO601_setup_s_3.obj
 0002:00003fdc       ??_C@_0CM@DDMDIOIG@Failed?5to?5set?5EXT?5acceptance?5mas@ 1001afdc     sg_IO601_setup_s_3.obj
 0002:00004008       ??_C@_0DA@FCNEDIMM@?$CFs?3?5Failed?5to?5set?5STD?5acceptance@ 1001b008     sg_IO601_setup_s_3.obj
 0002:00004038       ??_C@_0DA@LJODIDMP@?$CFs?3?5Failed?5to?5set?5STD?5acceptance@ 1001b038     sg_IO601_setup_s_3.obj
 0002:00004068       ??_C@_0BJ@NNOJMMEN@?$CFs?3?5Failed?5to?5init?5CAN?51?$AA@ 1001b068     sg_IO601_setup_s_3.obj
 0002:00004084       ??_C@_0CC@CAHHBIBC@initialize?5Speedgoat?5IO601?5CAN?51@ 1001b084     sg_IO601_setup_s_3.obj
 0002:000040a8       ??_C@_0BI@ODAKADLH@?$CFs?3?5wrong?5firmware?5?$CI?$CFs?$CJ?$AA@ 1001b0a8     sg_IO601_setup_s_3.obj
 0002:000040c0       ??_C@_04BPKHPNPF@4?418?$AA@ 1001b0c0     sg_IO601_setup_s_3.obj
 0002:000040c8       ??_C@_04JKHJFPGD@4?427?$AA@ 1001b0c8     sg_IO601_setup_s_3.obj
 0002:000040d0       ??_C@_0CE@JCCAPNGC@IO601?3?5Failed?5to?5stop?5CAN?5on?5por@ 1001b0d0     sg_IO601_setup_s_3.obj
 0002:000040f4       ??_C@_0CE@LJANKOKB@IO601?3?5Failed?5to?5stop?5CAN?5on?5por@ 1001b0f4     sg_IO601_setup_s_3.obj
 0002:00004118       ??_C@_0CF@PNCKPEHN@sendToAsyncQueueTgtAppSvc?5not?5fo@ 1001b118     xpcruntime:xpcimports.obj
 0002:00004140       ??_C@_0BK@IDACEHAO@sendToAsyncQueueTgtAppSvc?$AA@ 1001b140     xpcruntime:xpcimports.obj
 0002:0000415c       ??_C@_0CK@NDEMAMKF@terminateToAsyncQueueTgtAppSvc?5n@ 1001b15c     xpcruntime:xpcimports.obj
 0002:00004188       ??_C@_0BP@IJNGPPPE@terminateToAsyncQueueTgtAppSvc?$AA@ 1001b188     xpcruntime:xpcimports.obj
 0002:000041a8       ??_C@_0CG@JGOFFKEL@startToAsyncQueueTgtAppSvc?5not?5f@ 1001b1a8     xpcruntime:xpcimports.obj
 0002:000041d0       ??_C@_0BL@CDFCLKOL@startToAsyncQueueTgtAppSvc?$AA@ 1001b1d0     xpcruntime:xpcimports.obj
 0002:000041ec       ??_C@_0BK@NEKDLJHG@getStatusFlags?5not?5found?6?$AA@ 1001b1ec     xpcruntime:xpcimports.obj
 0002:00004208       ??_C@_0P@GDLHFECE@getStatusFlags?$AA@ 1001b208     xpcruntime:xpcimports.obj
 0002:00004218       ??_C@_0BK@NCECBKNM@getCommService?5not?5found?6?$AA@ 1001b218     xpcruntime:xpcimports.obj
 0002:00004234       ??_C@_0P@KIKONDKK@getCommService?$AA@ 1001b234     xpcruntime:xpcimports.obj
 0002:00004244       ??_C@_0BM@MPLCNIIE@getMemoryService?5not?5found?6?$AA@ 1001b244     xpcruntime:xpcimports.obj
 0002:00004260       ??_C@_0BB@LCMHHHFN@getMemoryService?$AA@ 1001b260     xpcruntime:xpcimports.obj
 0002:00004274       ??_C@_0BI@NHJNFMKH@xpceaddEvent?5not?5found?6?$AA@ 1001b274     xpcruntime:xpcimports.obj
 0002:0000428c       ??_C@_0N@IGGLCIGE@xpceaddEvent?$AA@ 1001b28c     xpcruntime:xpcimports.obj
 0002:0000429c       ??_C@_0BH@OINCDMLA@StreamVideo?5not?5found?6?$AA@ 1001b29c     xpcruntime:xpcimports.obj
 0002:000042b4       ??_C@_0M@MFJEGMHC@StreamVideo?$AA@ 1001b2b4     xpcruntime:xpcimports.obj
 0002:000042c0       ??_C@_0BM@DBJBPLEL@StopVideoDisplay?5not?5found?6?$AA@ 1001b2c0     xpcruntime:xpcimports.obj
 0002:000042dc       ??_C@_0BB@JBBLMILG@StopVideoDisplay?$AA@ 1001b2dc     xpcruntime:xpcimports.obj
 0002:000042f0       ??_C@_0BN@EFIEBGOO@StartVideoDisplay?5not?5found?6?$AA@ 1001b2f0     xpcruntime:xpcimports.obj
 0002:00004310       ??_C@_0BC@HCMIMIDN@StartVideoDisplay?$AA@ 1001b310     xpcruntime:xpcimports.obj
 0002:00004324       ??_C@_0BP@FMGLJAIJ@DestroyVideoDisplay?5not?5found?6?$AA@ 1001b324     xpcruntime:xpcimports.obj
 0002:00004344       ??_C@_0BE@KJCKGPHA@DestroyVideoDisplay?$AA@ 1001b344     xpcruntime:xpcimports.obj
 0002:00004358       ??_C@_0BO@HPPLLNFP@CreateVideoDisplay?5not?5found?6?$AA@ 1001b358     xpcruntime:xpcimports.obj
 0002:00004378       ??_C@_0BD@NKCBPBJJ@CreateVideoDisplay?$AA@ 1001b378     xpcruntime:xpcimports.obj
 0002:0000438c       ??_C@_0BJ@PHJKOAFL@ConvertUImage?5not?5found?6?$AA@ 1001b38c     xpcruntime:xpcimports.obj
 0002:000043a8       ??_C@_0O@MCPKDLLL@ConvertUImage?$AA@ 1001b3a8     xpcruntime:xpcimports.obj
 0002:000043b8       ??_C@_0BF@NKGKKADL@StopVideo?5not?5found?6?$AA@ 1001b3b8     xpcruntime:xpcimports.obj
 0002:000043d0       ??_C@_09FAHCLKAG@StopVideo?$AA@ 1001b3d0     xpcruntime:xpcimports.obj
 0002:000043dc       ??_C@_0BL@JHGHPNBI@ReadFrameBuffer?5not?5found?6?$AA@ 1001b3dc     xpcruntime:xpcimports.obj
 0002:000043f8       ??_C@_0BA@FDNPOCLN@ReadFrameBuffer?$AA@ 1001b3f8     xpcruntime:xpcimports.obj
 0002:00004408       ??_C@_0BG@HDCELEBP@StartVideo?5not?5found?6?$AA@ 1001b408     xpcruntime:xpcimports.obj
 0002:00004420       ??_C@_0L@GBAEMHMH@StartVideo?$AA@ 1001b420     xpcruntime:xpcimports.obj
 0002:0000442c       ??_C@_0BL@DALDHKHC@GetVideoConfigs?5not?5found?6?$AA@ 1001b42c     xpcruntime:xpcimports.obj
 0002:00004448       ??_C@_0BA@PLPAPNAB@GetVideoConfigs?$AA@ 1001b448     xpcruntime:xpcimports.obj
 0002:00004458       ??_C@_0BO@POKLDHMI@FindUsbVideoDevice?5not?5found?6?$AA@ 1001b458     xpcruntime:xpcimports.obj
 0002:00004478       ??_C@_0BD@MFNDMBOF@FindUsbVideoDevice?$AA@ 1001b478     xpcruntime:xpcimports.obj
 0002:0000448c       ??_C@_0BP@OFNCKOJH@xpceDeleteSemaphore?5not?5found?6?$AA@ 1001b48c     xpcruntime:xpcimports.obj
 0002:000044ac       ??_C@_0BE@MEBEKOIM@xpceDeleteSemaphore?$AA@ 1001b4ac     xpcruntime:xpcimports.obj
 0002:000044c0       ??_C@_0BP@LBANMHJP@xpceSignalSemaphore?5not?5found?6?$AA@ 1001b4c0     xpcruntime:xpcimports.obj
 0002:000044e0       ??_C@_0BE@NNDIOBKE@xpceSignalSemaphore?$AA@ 1001b4e0     xpcruntime:xpcimports.obj
 0002:000044f4       ??_C@_0BN@NMFAADIO@xpceWaitSemaphore?5not?5found?6?$AA@ 1001b4f4     xpcruntime:xpcimports.obj
 0002:00004514       ??_C@_0BC@IFNIONKJ@xpceWaitSemaphore?$AA@ 1001b514     xpcruntime:xpcimports.obj
 0002:00004528       ??_C@_0BP@KFBAFFKJ@xpceCreateSemaphore?5not?5found?6?$AA@ 1001b528     xpcruntime:xpcimports.obj
 0002:00004548       ??_C@_0BE@IIGBFDHK@xpceCreateSemaphore?$AA@ 1001b548     xpcruntime:xpcimports.obj
 0002:0000455c       ??_C@_0BK@KGPJBJND@TBGiveSpinFast?5not?5found?6?$AA@ 1001b55c     xpcruntime:xpcimports.obj
 0002:00004578       ??_C@_0P@FKNAAELA@TBGiveSpinFast?$AA@ 1001b578     xpcruntime:xpcimports.obj
 0002:00004588       ??_C@_0BK@NKAIBHGB@TBTakeSpinFast?5not?5found?6?$AA@ 1001b588     xpcruntime:xpcimports.obj
 0002:000045a4       ??_C@_0P@DAHDDBJG@TBTakeSpinFast?$AA@ 1001b5a4     xpcruntime:xpcimports.obj
 0002:000045b4       ??_C@_0BI@BKCPAAG@TBDeleteSpin?5not?5found?6?$AA@ 1001b5b4     xpcruntime:xpcimports.obj
 0002:000045cc       ??_C@_0N@HOAJHNBD@TBDeleteSpin?$AA@ 1001b5cc     xpcruntime:xpcimports.obj
 0002:000045dc       ??_C@_0BI@FHKMLKOE@TBCreateSpin?5not?5found?6?$AA@ 1001b5dc     xpcruntime:xpcimports.obj
 0002:000045f4       ??_C@_0N@LKKJEKKA@TBCreateSpin?$AA@ 1001b5f4     xpcruntime:xpcimports.obj
 0002:00004604       ??_C@_0BH@FBOPECBI@xpcBusyWait?5not?5found?6?$AA@ 1001b604     xpcruntime:xpcimports.obj
 0002:0000461c       ??_C@_0M@ICBLMODA@xpcBusyWait?$AA@ 1001b61c     xpcruntime:xpcimports.obj
 0002:00004628       ??_C@_0BN@OEOAHCIO@xpcGetElapsedTime?5not?5found?6?$AA@ 1001b628     xpcruntime:xpcimports.obj
 0002:00004648       ??_C@_0BC@JGKNLICL@xpcGetElapsedTime?$AA@ 1001b648     xpcruntime:xpcimports.obj
 0002:0000465c       ??_C@_0CB@PKJEBPOG@xpcFreePhysicalMemory?5not?5found?6@ 1001b65c     xpcruntime:xpcimports.obj
 0002:00004680       ??_C@_0BG@CBNPGAEL@xpcFreePhysicalMemory?$AA@ 1001b680     xpcruntime:xpcimports.obj
 0002:00004698       ??_C@_0CC@MOJPNHKL@xpcAllocPhysicalMemory?5not?5found@ 1001b698     xpcruntime:xpcimports.obj
 0002:000046bc       ??_C@_0BH@KJJLCAOJ@xpcAllocPhysicalMemory?$AA@ 1001b6bc     xpcruntime:xpcimports.obj
 0002:000046d4       ??_C@_0BK@DHEMLBIM@xpcIsModelInit?5not?5found?6?$AA@ 1001b6d4     xpcruntime:xpcimports.obj
 0002:000046f0       ??_C@_0P@OKGNGAGH@xpcIsModelInit?$AA@ 1001b6f0     xpcruntime:xpcimports.obj
 0002:00004700       ??_C@_0BI@FHPFHECO@xpceUDPClose?5not?5found?6?$AA@ 1001b700     xpcruntime:xpcimports.obj
 0002:00004718       ??_C@_0N@IEHPMFME@xpceUDPClose?$AA@ 1001b718     xpcruntime:xpcimports.obj
 0002:00004728       ??_C@_0BK@OPJMLDLH@xpceUDPReceive?5not?5found?6?$AA@ 1001b728     xpcruntime:xpcimports.obj
 0002:00004744       ??_C@_0P@PLFDECIN@xpceUDPReceive?$AA@ 1001b744     xpcruntime:xpcimports.obj
 0002:00004754       ??_C@_0BH@NOIKLPAB@xpceUDPSend?5not?5found?6?$AA@ 1001b754     xpcruntime:xpcimports.obj
 0002:0000476c       ??_C@_0M@OFPFLJGN@xpceUDPSend?$AA@ 1001b76c     xpcruntime:xpcimports.obj
 0002:00004778       ??_C@_0BO@IFKJBHKC@xpceUDPOpenReceive?5not?5found?6?$AA@ 1001b778     xpcruntime:xpcimports.obj
 0002:00004798       ??_C@_0BD@BCELJJJL@xpceUDPOpenReceive?$AA@ 1001b798     xpcruntime:xpcimports.obj
 0002:000047ac       ??_C@_0BL@HNLPFEK@xpceUDPOpenSend?5not?5found?6?$AA@ 1001b7ac     xpcruntime:xpcimports.obj
 0002:000047c8       ??_C@_0BA@FHMIOKFL@xpceUDPOpenSend?$AA@ 1001b7c8     xpcruntime:xpcimports.obj
 0002:000047d8       ??_C@_0BG@HNOFBOB@xpceGetTET?5not?5found?6?$AA@ 1001b7d8     xpcruntime:xpcimports.obj
 0002:000047f0       ??_C@_0L@OCBLLHBM@xpceGetTET?$AA@ 1001b7f0     xpcruntime:xpcimports.obj
 0002:000047fc       ??_C@_0BM@OABDBKAO@xpceGetParamDims?5not?5found?6?$AA@ 1001b7fc     xpcruntime:xpcimports.obj
 0002:00004818       ??_C@_0BB@CEIJLFCD@xpceGetParamDims?$AA@ 1001b818     xpcruntime:xpcimports.obj
 0002:0000482c       ??_C@_0BM@POHNKBC@xpceGetParameter?5not?5found?6?$AA@ 1001b82c     xpcruntime:xpcimports.obj
 0002:00004848       ??_C@_0BB@GNFDFMCM@xpceGetParameter?$AA@ 1001b848     xpcruntime:xpcimports.obj
 0002:0000485c       ??_C@_0BM@BJIKDLHA@xpceSetParameter?5not?5found?6?$AA@ 1001b85c     xpcruntime:xpcimports.obj
 0002:00004878       ??_C@_0BB@BJONJAGA@xpceSetParameter?$AA@ 1001b878     xpcruntime:xpcimports.obj
 0002:0000488c       ??_C@_0BO@GCBDJHMB@xpceGetSignalValue?5not?5found?6?$AA@ 1001b88c     xpcruntime:xpcimports.obj
 0002:000048ac       ??_C@_0BD@PCKOKHO@xpceGetSignalValue?$AA@ 1001b8ac     xpcruntime:xpcimports.obj
 0002:000048c0       ??_C@_0BK@KNBNFIKH@rl32eSendBlock?5not?5found?6?$AA@ 1001b8c0     xpcruntime:xpcimports.obj
 0002:000048dc       ??_C@_0P@MDMKIJF@rl32eSendBlock?$AA@ 1001b8dc     xpcruntime:xpcimports.obj
 0002:000048ec       ??_C@_0BL@PLIDKKGI@rl32eLineStatus?5not?5found?6?$AA@ 1001b8ec     xpcruntime:xpcimports.obj
 0002:00004908       ??_C@_0BA@CFIJOJPK@rl32eLineStatus?$AA@ 1001b908     xpcruntime:xpcimports.obj
 0002:00004918       ??_C@_0CD@LNMOFLAH@rl32eReceiveBufferCount?5not?5foun@ 1001b918     xpcruntime:xpcimports.obj
 0002:0000493c       ??_C@_0BI@PKEJFHMJ@rl32eReceiveBufferCount?$AA@ 1001b93c     xpcruntime:xpcimports.obj
 0002:00004954       ??_C@_0BM@HGAIOAND@rl32eReceiveChar?5not?5found?6?$AA@ 1001b954     xpcruntime:xpcimports.obj
 0002:00004970       ??_C@_0BB@OMFKCOEK@rl32eReceiveChar?$AA@ 1001b970     xpcruntime:xpcimports.obj
 0002:00004984       ??_C@_0BJ@JCJKDACJ@rl32eSendChar?5not?5found?6?$AA@ 1001b984     xpcruntime:xpcimports.obj
 0002:000049a0       ??_C@_0O@LLJGKFOG@rl32eSendChar?$AA@ 1001b9a0     xpcruntime:xpcimports.obj
 0002:000049b0       ??_C@_0BN@KCOFELEM@rl32eCloseCOMPort?5not?5found?6?$AA@ 1001b9b0     xpcruntime:xpcimports.obj
 0002:000049d0       ??_C@_0BC@CHEEFCP@rl32eCloseCOMPort?$AA@ 1001b9d0     xpcruntime:xpcimports.obj
 0002:000049e4       ??_C@_0BM@DDJGKAHB@rl32eInitCOMPort?5not?5found?6?$AA@ 1001b9e4     xpcruntime:xpcimports.obj
 0002:00004a00       ??_C@_0BB@FCHHFAAH@rl32eInitCOMPort?$AA@ 1001ba00     xpcruntime:xpcimports.obj
 0002:00004a14       ??_C@_0CC@CDNDNJBJ@xpceAssignPCIInterrupt?5not?5found@ 1001ba14     xpcruntime:xpcimports.obj
 0002:00004a38       ??_C@_0BH@OKBOPNFG@xpceAssignPCIInterrupt?$AA@ 1001ba38     xpcruntime:xpcimports.obj
 0002:00004a50       ??_C@_0CB@BBKIPMLA@rl32eGetPCIInfoAtSlot?5not?5found?6@ 1001ba50     xpcruntime:xpcimports.obj
 0002:00004a74       ??_C@_0BG@NJPFKFDP@rl32eGetPCIInfoAtSlot?$AA@ 1001ba74     xpcruntime:xpcimports.obj
 0002:00004a8c       ??_C@_0BL@IGOMLDCK@rl32eGetPCIInfo?5not?5found?6?$AA@ 1001ba8c     xpcruntime:xpcimports.obj
 0002:00004aa8       ??_C@_0BA@BGPAADB@rl32eGetPCIInfo?$AA@ 1001baa8     xpcruntime:xpcimports.obj
 0002:00004ab8       ??_C@_0BM@IFDMAGLO@rl32eShowPCIInfo?5not?5found?6?$AA@ 1001bab8     xpcruntime:xpcimports.obj
 0002:00004ad4       ??_C@_0BB@KBCOJPFB@rl32eShowPCIInfo?$AA@ 1001bad4     xpcruntime:xpcimports.obj
 0002:00004ae8       ??_C@_0BL@DDFFLNHI@rl32eShowPCIDev?5not?5found?6?$AA@ 1001bae8     xpcruntime:xpcimports.obj
 0002:00004b04       ??_C@_0BA@JGPMHGAF@rl32eShowPCIDev?$AA@ 1001bb04     xpcruntime:xpcimports.obj
 0002:00004b14       ??_C@_0CC@KAAAGPI@xpcReserveMemoryRegion?5not?5found@ 1001bb14     xpcruntime:xpcimports.obj
 0002:00004b38       ??_C@_0BH@EHOLELHH@xpcReserveMemoryRegion?$AA@ 1001bb38     xpcruntime:xpcimports.obj
 0002:00004b50       ??_C@_0BF@GJKLPNHB@xpcOutpDW?5not?5found?6?$AA@ 1001bb50     xpcruntime:xpcimports.obj
 0002:00004b68       ??_C@_09FLIEKHJG@xpcOutpDW?$AA@ 1001bb68     xpcruntime:xpcimports.obj
 0002:00004b74       ??_C@_0BE@NLIFDBGM@xpcOutpW?5not?5found?6?$AA@ 1001bb74     xpcruntime:xpcimports.obj
 0002:00004b88       ??_C@_08MOOJAOHK@xpcOutpW?$AA@ 1001bb88     xpcruntime:xpcimports.obj
 0002:00004b94       ??_C@_0BE@HCKNCEKF@xpcOutpB?5not?5found?6?$AA@ 1001bb94     xpcruntime:xpcimports.obj
 0002:00004ba8       ??_C@_08PJFMOIGO@xpcOutpB?$AA@ 1001bba8     xpcruntime:xpcimports.obj
 0002:00004bb4       ??_C@_0BE@PIELDNIL@xpcInpDW?5not?5found?6?$AA@ 1001bbb4     xpcruntime:xpcimports.obj
 0002:00004bc8       ??_C@_08KDIAJBOP@xpcInpDW?$AA@ 1001bbc8     xpcruntime:xpcimports.obj
 0002:00004bd4       ??_C@_0BD@FPCJFMCC@xpcInpW?5not?5found?6?$AA@ 1001bbd4     xpcruntime:xpcimports.obj
 0002:00004be8       ??_C@_07KIHBBOKH@xpcInpW?$AA@ 1001bbe8     xpcruntime:xpcimports.obj
 0002:00004bf0       ??_C@_0BD@PGABEJOL@xpcInpB?5not?5found?6?$AA@ 1001bbf0     xpcruntime:xpcimports.obj
 0002:00004c04       ??_C@_07JPMEPILD@xpcInpB?$AA@ 1001bc04     xpcruntime:xpcimports.obj
 0002:00004c0c       ??_C@_0BK@HONODOKP@xpceFTSubtract?5not?5found?6?$AA@ 1001bc0c     xpcruntime:xpcimports.obj
 0002:00004c28       ??_C@_0P@KEODBLHO@xpceFTSubtract?$AA@ 1001bc28     xpcruntime:xpcimports.obj
 0002:00004c38       ??_C@_0BF@FJLEIILA@xpceFTAdd?5not?5found?6?$AA@ 1001bc38     xpcruntime:xpcimports.obj
 0002:00004c50       ??_C@_09PHNHCHFH@xpceFTAdd?$AA@ 1001bc50     xpcruntime:xpcimports.obj
 0002:00004c5c       ??_C@_0BK@NMABIODN@xpceFTReadTime?5not?5found?6?$AA@ 1001bc5c     xpcruntime:xpcimports.obj
 0002:00004c78       ??_C@_0P@CPGPNKEB@xpceFTReadTime?$AA@ 1001bc78     xpcruntime:xpcimports.obj
 0002:00004c88       ??_C@_0BN@DCAIKFFD@xpceDeRegisterISR?5not?5found?6?$AA@ 1001bc88     xpcruntime:xpcimports.obj
 0002:00004ca8       ??_C@_0BC@NLBADGKF@xpceDeRegisterISR?$AA@ 1001bca8     xpcruntime:xpcimports.obj
 0002:00004cbc       ??_C@_0BL@NNDLOEJE@xpceRegisterISR?5not?5found?6?$AA@ 1001bcbc     xpcruntime:xpcimports.obj
 0002:00004cd8       ??_C@_0BA@IJINKAHF@xpceRegisterISR?$AA@ 1001bcd8     xpcruntime:xpcimports.obj
 0002:00004ce8       ??_C@_0BK@NJCKNFPN@xpceScopeAcqOK?5not?5found?6?$AA@ 1001bce8     xpcruntime:xpcimports.obj
 0002:00004d04       ??_C@_0P@IEIIADJB@xpceScopeAcqOK?$AA@ 1001bd04     xpcruntime:xpcimports.obj
 0002:00004d14       ??_C@_0CD@LLBEFFBO@rl32eRestartAcquisition?5not?5foun@ 1001bd14     xpcruntime:xpcimports.obj
 0002:00004d38       ??_C@_0BI@JAPOIDNG@rl32eRestartAcquisition?$AA@ 1001bd38     xpcruntime:xpcimports.obj
 0002:00004d50       ??_C@_0CE@JLGHCFHI@rl32eSetTargetScopeSigFt?5not?5fou@ 1001bd50     xpcruntime:xpcimports.obj
 0002:00004d74       ??_C@_0BJ@LIDLNDHC@rl32eSetTargetScopeSigFt?$AA@ 1001bd74     xpcruntime:xpcimports.obj
 0002:00004d90       ??_C@_0BP@JCHFMKPJ@rl32eSetTargetScope?5not?5found?6?$AA@ 1001bd90     xpcruntime:xpcimports.obj
 0002:00004db0       ??_C@_0BE@DLACEEJM@rl32eSetTargetScope?$AA@ 1001bdb0     xpcruntime:xpcimports.obj
 0002:00004dc4       ??_C@_0BK@JODJPNNH@xpceFSScopeSet?5not?5found?6?$AA@ 1001bdc4     xpcruntime:xpcimports.obj
 0002:00004de0       ??_C@_0P@IKMCBMHH@xpceFSScopeSet?$AA@ 1001bde0     xpcruntime:xpcimports.obj
 0002:00004df0       ??_C@_0BJ@JCLHHIN@rl32eSetScope?5not?5found?6?$AA@ 1001bdf0     xpcruntime:xpcimports.obj
 0002:00004e0c       ??_C@_0O@CFDGALBP@rl32eSetScope?$AA@ 1001be0c     xpcruntime:xpcimports.obj
 0002:00004e1c       ??_C@_0BM@LGAMBAID@rl32eGetSignalNo?5not?5found?6?$AA@ 1001be1c     xpcruntime:xpcimports.obj
 0002:00004e38       ??_C@_0BB@LDMIHGCE@rl32eGetSignalNo?$AA@ 1001be38     xpcruntime:xpcimports.obj
 0002:00004e4c       ??_C@_0BK@GMJAJBAI@rl32eAddSignal?5not?5found?6?$AA@ 1001be4c     xpcruntime:xpcimports.obj
 0002:00004e68       ??_C@_0P@CKNKILDP@rl32eAddSignal?$AA@ 1001be68     xpcruntime:xpcimports.obj
 0002:00004e78       ??_C@_0BJ@CDNOENKA@rl32eDefScope?5not?5found?6?$AA@ 1001be78     xpcruntime:xpcimports.obj
 0002:00004e94       ??_C@_0O@BNNGKJEA@rl32eDefScope?$AA@ 1001be94     xpcruntime:xpcimports.obj
 0002:00004ea4       ??_C@_0BM@FJBFEGFG@rl32eScopeExists?5not?5found?6?$AA@ 1001bea4     xpcruntime:xpcimports.obj
 0002:00004ec0       ??_C@_0BB@BNNCEDPC@rl32eScopeExists?$AA@ 1001bec0     xpcruntime:xpcimports.obj
 0002:00004ed4       __FPinit                   1001bed4     LIBCMT:_fpinit_.obj
 0002:00004f80       __OP_FMODjmptab            1001bf80     LIBCMT:_87fmod_.obj
 0002:00004fd0       ??_C@_0P@MIGLKIOC@CorExitProcess?$AA@ 1001bfd0     LIBCMT:crt0dat.obj
 0002:00004fe0       ??_C@_1BI@BGOHAHKC@?$AAm?$AAs?$AAc?$AAo?$AAr?$AAe?$AAe?$AA?4?$AAd?$AAl?$AAl?$AA?$AA@ 1001bfe0     LIBCMT:crt0dat.obj
 0002:00004ff8       ??_C@_15IABLJNFO@?$AA?6?$AA?6?$AA?$AA@ 1001bff8     LIBCMT:wassert.obj
 0002:00005000       ??_C@_13LBAGMAIH@?$AA?6?$AA?$AA@ 1001c000     LIBCMT:wassert.obj
 0002:00005004       ??_C@_17LGKOMLJ@?$AA?4?$AA?4?$AA?4?$AA?$AA@ 1001c004     LIBCMT:wassert.obj
 0002:00005010       ??_C@_1EK@MBDPDCGA@?$AAM?$AAi?$AAc?$AAr?$AAo?$AAs?$AAo?$AAf?$AAt?$AA?5?$AAV?$AAi?$AAs?$AAu?$AAa?$AAl?$AA?5?$AAC?$AA?$CL?$AA?$CL?$AA?5?$AAR?$AAu?$AAn?$AAt?$AAi?$AAm?$AAe?$AA?5?$AAL?$AAi?$AAb@ 1001c010     LIBCMT:wassert.obj
 0002:0000505c       ??_C@_1CO@EAEJAADC@?$AA?$DM?$AAp?$AAr?$AAo?$AAg?$AAr?$AAa?$AAm?$AA?5?$AAn?$AAa?$AAm?$AAe?$AA?5?$AAu?$AAn?$AAk?$AAn?$AAo?$AAw?$AAn?$AA?$DO?$AA?$AA@ 1001c05c     LIBCMT:wassert.obj
 0002:0000508c       __pRawDllMain              1001c08c     LIBCMT:dllcrt0.obj
 0002:0000508c       __pDefaultRawDllMain       1001c08c     LIBCMT:dllcrt0.obj
 0002:00005090       ??_C@_1BO@BKOMIGKJ@?$AAr?$AAu?$AAn?$AAt?$AAi?$AAm?$AAe?$AA?5?$AAe?$AAr?$AAr?$AAo?$AAr?$AA?5?$AA?$AA@ 1001c090     LIBCMT:crt0msg.obj
 0002:000050b0       ??_C@_15JNBOKNOG@?$AA?$AN?$AA?6?$AA?$AA@ 1001c0b0     LIBCMT:crt0msg.obj
 0002:000050b8       ??_C@_1BM@JBBEPPHI@?$AAT?$AAL?$AAO?$AAS?$AAS?$AA?5?$AAe?$AAr?$AAr?$AAo?$AAr?$AA?$AN?$AA?6?$AA?$AA@ 1001c0b8     LIBCMT:crt0msg.obj
 0002:000050d4       ??_C@_1BK@KMOMNAAI@?$AAS?$AAI?$AAN?$AAG?$AA?5?$AAe?$AAr?$AAr?$AAo?$AAr?$AA?$AN?$AA?6?$AA?$AA@ 1001c0d4     LIBCMT:crt0msg.obj
 0002:000050f0       ??_C@_1BO@BFCDCGC@?$AAD?$AAO?$AAM?$AAA?$AAI?$AAN?$AA?5?$AAe?$AAr?$AAr?$AAo?$AAr?$AA?$AN?$AA?6?$AA?$AA@ 1001c0f0     LIBCMT:crt0msg.obj
 0002:00005110       ??_C@_1BOO@KGEDBGAJ@?$AAR?$AA6?$AA0?$AA3?$AA3?$AA?$AN?$AA?6?$AA?9?$AA?5?$AAA?$AAt?$AAt?$AAe?$AAm?$AAp?$AAt?$AA?5?$AAt?$AAo?$AA?5?$AAu?$AAs?$AAe?$AA?5?$AAM?$AAS?$AAI?$AAL?$AA?5?$AAc?$AAo?$AAd@ 1001c110     LIBCMT:crt0msg.obj
 0002:00005300       ??_C@_1GG@GOPILAJP@?$AAR?$AA6?$AA0?$AA3?$AA2?$AA?$AN?$AA?6?$AA?9?$AA?5?$AAn?$AAo?$AAt?$AA?5?$AAe?$AAn?$AAo?$AAu?$AAg?$AAh?$AA?5?$AAs?$AAp?$AAa?$AAc?$AAe?$AA?5?$AAf?$AAo?$AAr?$AA?5?$AAl?$AAo@ 1001c300     LIBCMT:crt0msg.obj
 0002:00005368       ??_C@_1MG@ENCOOIDF@?$AAR?$AA6?$AA0?$AA3?$AA1?$AA?$AN?$AA?6?$AA?9?$AA?5?$AAA?$AAt?$AAt?$AAe?$AAm?$AAp?$AAt?$AA?5?$AAt?$AAo?$AA?5?$AAi?$AAn?$AAi?$AAt?$AAi?$AAa?$AAl?$AAi?$AAz?$AAe?$AA?5?$AAt@ 1001c368     LIBCMT:crt0msg.obj
 0002:00005430       ??_C@_1DO@BMFCDCD@?$AAR?$AA6?$AA0?$AA3?$AA0?$AA?$AN?$AA?6?$AA?9?$AA?5?$AAC?$AAR?$AAT?$AA?5?$AAn?$AAo?$AAt?$AA?5?$AAi?$AAn?$AAi?$AAt?$AAi?$AAa?$AAl?$AAi?$AAz?$AAe?$AAd?$AA?$AN?$AA?6?$AA?$AA@ 1001c430     LIBCMT:crt0msg.obj
 0002:00005470       ??_C@_1EK@HHFLMAOL@?$AAR?$AA6?$AA0?$AA2?$AA8?$AA?$AN?$AA?6?$AA?9?$AA?5?$AAu?$AAn?$AAa?$AAb?$AAl?$AAe?$AA?5?$AAt?$AAo?$AA?5?$AAi?$AAn?$AAi?$AAt?$AAi?$AAa?$AAl?$AAi?$AAz?$AAe?$AA?5?$AAh?$AAe@ 1001c470     LIBCMT:crt0msg.obj
 0002:000054c0       ??_C@_1GK@MFGOKLAG@?$AAR?$AA6?$AA0?$AA2?$AA7?$AA?$AN?$AA?6?$AA?9?$AA?5?$AAn?$AAo?$AAt?$AA?5?$AAe?$AAn?$AAo?$AAu?$AAg?$AAh?$AA?5?$AAs?$AAp?$AAa?$AAc?$AAe?$AA?5?$AAf?$AAo?$AAr?$AA?5?$AAl?$AAo@ 1001c4c0     LIBCMT:crt0msg.obj
 0002:00005530       ??_C@_1GK@MCAAGJMO@?$AAR?$AA6?$AA0?$AA2?$AA6?$AA?$AN?$AA?6?$AA?9?$AA?5?$AAn?$AAo?$AAt?$AA?5?$AAe?$AAn?$AAo?$AAu?$AAg?$AAh?$AA?5?$AAs?$AAp?$AAa?$AAc?$AAe?$AA?5?$AAf?$AAo?$AAr?$AA?5?$AAs?$AAt@ 1001c530     LIBCMT:crt0msg.obj
 0002:000055a0       ??_C@_1EM@MAADIHMB@?$AAR?$AA6?$AA0?$AA2?$AA5?$AA?$AN?$AA?6?$AA?9?$AA?5?$AAp?$AAu?$AAr?$AAe?$AA?5?$AAv?$AAi?$AAr?$AAt?$AAu?$AAa?$AAl?$AA?5?$AAf?$AAu?$AAn?$AAc?$AAt?$AAi?$AAo?$AAn?$AA?5?$AAc@ 1001c5a0     LIBCMT:crt0msg.obj
 0002:000055f0       ??_C@_1GK@FHCKBEFA@?$AAR?$AA6?$AA0?$AA2?$AA4?$AA?$AN?$AA?6?$AA?9?$AA?5?$AAn?$AAo?$AAt?$AA?5?$AAe?$AAn?$AAo?$AAu?$AAg?$AAh?$AA?5?$AAs?$AAp?$AAa?$AAc?$AAe?$AA?5?$AAf?$AAo?$AAr?$AA?5?$AA_?$AAo@ 1001c5f0     LIBCMT:crt0msg.obj
 0002:00005660       ??_C@_1FC@ECHBIFBC@?$AAR?$AA6?$AA0?$AA1?$AA9?$AA?$AN?$AA?6?$AA?9?$AA?5?$AAu?$AAn?$AAa?$AAb?$AAl?$AAe?$AA?5?$AAt?$AAo?$AA?5?$AAo?$AAp?$AAe?$AAn?$AA?5?$AAc?$AAo?$AAn?$AAs?$AAo?$AAl?$AAe?$AA?5@ 1001c660     LIBCMT:crt0msg.obj
 0002:000056b8       ??_C@_1EC@JIBHAOPH@?$AAR?$AA6?$AA0?$AA1?$AA8?$AA?$AN?$AA?6?$AA?9?$AA?5?$AAu?$AAn?$AAe?$AAx?$AAp?$AAe?$AAc?$AAt?$AAe?$AAd?$AA?5?$AAh?$AAe?$AAa?$AAp?$AA?5?$AAe?$AAr?$AAr?$AAo?$AAr?$AA?$AN?$AA?6@ 1001c6b8     LIBCMT:crt0msg.obj
 0002:00005700       ??_C@_1FK@BEOGODMC@?$AAR?$AA6?$AA0?$AA1?$AA7?$AA?$AN?$AA?6?$AA?9?$AA?5?$AAu?$AAn?$AAe?$AAx?$AAp?$AAe?$AAc?$AAt?$AAe?$AAd?$AA?5?$AAm?$AAu?$AAl?$AAt?$AAi?$AAt?$AAh?$AAr?$AAe?$AAa?$AAd?$AA?5@ 1001c700     LIBCMT:crt0msg.obj
 0002:00005760       ??_C@_1FI@LOGNIKDM@?$AAR?$AA6?$AA0?$AA1?$AA6?$AA?$AN?$AA?6?$AA?9?$AA?5?$AAn?$AAo?$AAt?$AA?5?$AAe?$AAn?$AAo?$AAu?$AAg?$AAh?$AA?5?$AAs?$AAp?$AAa?$AAc?$AAe?$AA?5?$AAf?$AAo?$AAr?$AA?5?$AAt?$AAh@ 1001c760     LIBCMT:crt0msg.obj
 0002:000057b8       ??_C@_1EG@BEHAGFJD@?$AAR?$AA6?$AA0?$AA1?$AA0?$AA?$AN?$AA?6?$AA?9?$AA?5?$AAa?$AAb?$AAo?$AAr?$AAt?$AA?$CI?$AA?$CJ?$AA?5?$AAh?$AAa?$AAs?$AA?5?$AAb?$AAe?$AAe?$AAn?$AA?5?$AAc?$AAa?$AAl?$AAl?$AAe?$AAd@ 1001c7b8     LIBCMT:crt0msg.obj
 0002:00005800       ??_C@_1FI@HONFMGBI@?$AAR?$AA6?$AA0?$AA0?$AA9?$AA?$AN?$AA?6?$AA?9?$AA?5?$AAn?$AAo?$AAt?$AA?5?$AAe?$AAn?$AAo?$AAu?$AAg?$AAh?$AA?5?$AAs?$AAp?$AAa?$AAc?$AAe?$AA?5?$AAf?$AAo?$AAr?$AA?5?$AAe?$AAn@ 1001c800     LIBCMT:crt0msg.obj
 0002:00005858       ??_C@_1FE@LLNEDJMD@?$AAR?$AA6?$AA0?$AA0?$AA8?$AA?$AN?$AA?6?$AA?9?$AA?5?$AAn?$AAo?$AAt?$AA?5?$AAe?$AAn?$AAo?$AAu?$AAg?$AAh?$AA?5?$AAs?$AAp?$AAa?$AAc?$AAe?$AA?5?$AAf?$AAo?$AAr?$AA?5?$AAa?$AAr@ 1001c858     LIBCMT:crt0msg.obj
 0002:000058b0       ??_C@_1FK@PGACCAFB@?$AAR?$AA6?$AA0?$AA0?$AA2?$AA?$AN?$AA?6?$AA?9?$AA?5?$AAf?$AAl?$AAo?$AAa?$AAt?$AAi?$AAn?$AAg?$AA?5?$AAp?$AAo?$AAi?$AAn?$AAt?$AA?5?$AAs?$AAu?$AAp?$AAp?$AAo?$AAr?$AAt?$AA?5@ 1001c8b0     LIBCMT:crt0msg.obj
 0002:000059c0       ??_C@_1DE@JNGNBFGO@?$AAR?$AAu?$AAn?$AAt?$AAi?$AAm?$AAe?$AA?5?$AAE?$AAr?$AAr?$AAo?$AAr?$AA?$CB?$AA?6?$AA?6?$AAP?$AAr?$AAo?$AAg?$AAr?$AAa?$AAm?$AA?3?$AA?5?$AA?$AA@ 1001c9c0     LIBCMT:crt0msg.obj
 0002:000059f4       ??_C@_05KLBDPFGC@e?$CL000?$AA@ 1001c9f4     LIBCMT:cvt.obj
 0002:00005a68       ??_C@_03IIINPABG@tan?$AA@  1001ca68     LIBCMT:_libm_error_.obj
 0002:00005a6c       ??_C@_03LALBNOCG@cos?$AA@  1001ca6c     LIBCMT:_libm_error_.obj
 0002:00005a70       ??_C@_03BLEJJJBH@sin?$AA@  1001ca70     LIBCMT:_libm_error_.obj
 0002:00005a74       ??_C@_04EHEDPDJG@modf?$AA@ 1001ca74     LIBCMT:_libm_error_.obj
 0002:00005a7c       ??_C@_05PBJFFIGL@floor?$AA@ 1001ca7c     LIBCMT:_libm_error_.obj
 0002:00005a84       ??_C@_04GFPJNGEK@ceil?$AA@ 1001ca84     LIBCMT:_libm_error_.obj
 0002:00005a8c       ??_C@_04MLLJIGOK@atan?$AA@ 1001ca8c     LIBCMT:_libm_error_.obj
 0002:00005a94       ??_C@_05EOHGHCHD@exp10?$AA@ 1001ca94     LIBCMT:_libm_error_.obj
 0002:00005a9c       ??_C@_04PDIFKINK@acos?$AA@ 1001ca9c     LIBCMT:_libm_error_.obj
 0002:00005aa4       ??_C@_04FIHNOPOL@asin?$AA@ 1001caa4     LIBCMT:_libm_error_.obj
 0002:00005aac       ??_C@_03MGHMBJCF@log?$AA@  1001caac     LIBCMT:_libm_error_.obj
 0002:00005ab0       ??_C@_05HGHHAHAP@log10?$AA@ 1001cab0     LIBCMT:_libm_error_.obj
 0002:00005ab8       ??_C@_03KHJOGHMM@exp?$AA@  1001cab8     LIBCMT:_libm_error_.obj
 0002:00005abc       ??_C@_03JGHBODFD@pow?$AA@  1001cabc     LIBCMT:_libm_error_.obj
 0002:00005af0       __indefinite               1001caf0     LIBCMT:_87disp_.obj
 0002:00005afa       __piby2                    1001cafa     LIBCMT:_87disp_.obj
 0002:000063c8       __DEFAULT_CW_in_mem        1001d3c8     LIBCMT:_common_.obj
 0002:000063ca       __pi_by_2_to_61            1001d3ca     LIBCMT:_common_.obj
 0002:00006404       ??_C@_1O@CEDCILHN@?$AA?$CI?$AAn?$AAu?$AAl?$AAl?$AA?$CJ?$AA?$AA@ 1001d404     LIBCMT:output.obj
 0002:00006414       ??_C@_06OJHGLDPL@?$CInull?$CJ?$AA@ 1001d414     LIBCMT:output.obj
 0002:00006420       ___lookuptable             1001d420     LIBCMT:output.obj
 0002:0000647c       ??_C@_0L@KDOEJCKC@_nextafter?$AA@ 1001d47c     LIBCMT:_fpexcept_.obj
 0002:00006488       ??_C@_05JGDBENOH@_logb?$AA@ 1001d488     LIBCMT:_fpexcept_.obj
 0002:00006490       ??_C@_03ONILCKOB@_yn?$AA@  1001d490     LIBCMT:_fpexcept_.obj
 0002:00006494       ??_C@_03NAKIGLHK@_y1?$AA@  1001d494     LIBCMT:_fpexcept_.obj
 0002:00006498       ??_C@_03MJLDFKDL@_y0?$AA@  1001d498     LIBCMT:_fpexcept_.obj
 0002:0000649c       ??_C@_05GKKHEGJL@frexp?$AA@ 1001d49c     LIBCMT:_fpexcept_.obj
 0002:000064a4       ??_C@_04KEPJIHGP@fmod?$AA@ 1001d4a4     LIBCMT:_fpexcept_.obj
 0002:000064ac       ??_C@_06MEIMCGCF@_hypot?$AA@ 1001d4ac     LIBCMT:_fpexcept_.obj
 0002:000064b4       ??_C@_05KBKMEMPO@_cabs?$AA@ 1001d4b4     LIBCMT:_fpexcept_.obj
 0002:000064bc       ??_C@_05CEJMAHNP@ldexp?$AA@ 1001d4bc     LIBCMT:_fpexcept_.obj
 0002:000064c4       ??_C@_04ODHECPBC@fabs?$AA@ 1001d4c4     LIBCMT:_fpexcept_.obj
 0002:000064cc       ??_C@_04EIAKFFMI@sqrt?$AA@ 1001d4cc     LIBCMT:_fpexcept_.obj
 0002:000064d4       ??_C@_05KNGEOGJB@atan2?$AA@ 1001d4d4     LIBCMT:_fpexcept_.obj
 0002:000064dc       ??_C@_04FJHINJAO@tanh?$AA@ 1001d4dc     LIBCMT:_fpexcept_.obj
 0002:000064e4       ??_C@_04HPJJNFIM@cosh?$AA@ 1001d4e4     LIBCMT:_fpexcept_.obj
 0002:000064ec       ??_C@_04COOMCNPB@sinh?$AA@ 1001d4ec     LIBCMT:_fpexcept_.obj
 0002:0000651c       ??_C@_1BK@DBDEIDLH@?$AAK?$AAE?$AAR?$AAN?$AAE?$AAL?$AA3?$AA2?$AA?4?$AAD?$AAL?$AAL?$AA?$AA@ 1001d51c     LIBCMT:tidtable.obj
 0002:00006538       ??_C@_07PEJMOBNF@FlsFree?$AA@ 1001d538     LIBCMT:tidtable.obj
 0002:00006540       ??_C@_0M@JCPCPOEF@FlsSetValue?$AA@ 1001d540     LIBCMT:tidtable.obj
 0002:0000654c       ??_C@_0M@GDNOONDI@FlsGetValue?$AA@ 1001d54c     LIBCMT:tidtable.obj
 0002:00006558       ??_C@_08KNHFBNJ@FlsAlloc?$AA@ 1001d558     LIBCMT:tidtable.obj
 0002:00006564       ??_C@_0BI@DFKBFLJE@GetProcessWindowStation?$AA@ 1001d564     LIBCMT:crtmboxw.obj
 0002:0000657c       ??_C@_0BK@DEKFELLI@GetUserObjectInformationW?$AA@ 1001d57c     LIBCMT:crtmboxw.obj
 0002:00006598       ??_C@_0BD@HHGDFDBJ@GetLastActivePopup?$AA@ 1001d598     LIBCMT:crtmboxw.obj
 0002:000065ac       ??_C@_0BA@HNOPNCHB@GetActiveWindow?$AA@ 1001d5ac     LIBCMT:crtmboxw.obj
 0002:000065bc       ??_C@_0M@DLDCCGNP@MessageBoxW?$AA@ 1001d5bc     LIBCMT:crtmboxw.obj
 0002:000065c8       ??_C@_1BG@GOEBHBDC@?$AAU?$AAS?$AAE?$AAR?$AA3?$AA2?$AA?4?$AAD?$AAL?$AAL?$AA?$AA@ 1001d5c8     LIBCMT:crtmboxw.obj
 0002:000065e0       __XcptActTab               1001d5e0     LIBCMT:winxfltr.obj
 0002:00006670       __First_FPE_Indx           1001d670     LIBCMT:winxfltr.obj
 0002:00006674       __Num_FPE                  1001d674     LIBCMT:winxfltr.obj
 0002:00006678       __XcptActTabSize           1001d678     LIBCMT:winxfltr.obj
 0002:0000667c       __XcptActTabCount          1001d67c     LIBCMT:winxfltr.obj
 0002:00006680       ??_C@_1BC@GDGBMEMK@?$AAH?$AAH?$AA?3?$AAm?$AAm?$AA?3?$AAs?$AAs?$AA?$AA@ 1001d680     LIBCMT:nlsdata2.obj
 0002:00006694       ??_C@_1CI@KNAKOEBC@?$AAd?$AAd?$AAd?$AAd?$AA?0?$AA?5?$AAM?$AAM?$AAM?$AAM?$AA?5?$AAd?$AAd?$AA?0?$AA?5?$AAy?$AAy?$AAy?$AAy?$AA?$AA@ 1001d694     LIBCMT:nlsdata2.obj
 0002:000066bc       ??_C@_1BC@IEBCMHCM@?$AAM?$AAM?$AA?1?$AAd?$AAd?$AA?1?$AAy?$AAy?$AA?$AA@ 1001d6bc     LIBCMT:nlsdata2.obj
 0002:000066d0       ??_C@_15CLMNNGEL@?$AAP?$AAM?$AA?$AA@ 1001d6d0     LIBCMT:nlsdata2.obj
 0002:000066d8       ??_C@_15ODEHAHHF@?$AAA?$AAM?$AA?$AA@ 1001d6d8     LIBCMT:nlsdata2.obj
 0002:000066e0       ??_C@_1BC@FEMKIFH@?$AAD?$AAe?$AAc?$AAe?$AAm?$AAb?$AAe?$AAr?$AA?$AA@ 1001d6e0     LIBCMT:nlsdata2.obj
 0002:000066f4       ??_C@_1BC@BGLIFPF@?$AAN?$AAo?$AAv?$AAe?$AAm?$AAb?$AAe?$AAr?$AA?$AA@ 1001d6f4     LIBCMT:nlsdata2.obj
 0002:00006708       ??_C@_1BA@EPANDLNG@?$AAO?$AAc?$AAt?$AAo?$AAb?$AAe?$AAr?$AA?$AA@ 1001d708     LIBCMT:nlsdata2.obj
 0002:00006718       ??_C@_1BE@DKAAMBJL@?$AAS?$AAe?$AAp?$AAt?$AAe?$AAm?$AAb?$AAe?$AAr?$AA?$AA@ 1001d718     LIBCMT:nlsdata2.obj
 0002:0000672c       ??_C@_1O@PAHLKOAC@?$AAA?$AAu?$AAg?$AAu?$AAs?$AAt?$AA?$AA@ 1001d72c     LIBCMT:nlsdata2.obj
 0002:0000673c       ??_C@_19BIFMLPCD@?$AAJ?$AAu?$AAl?$AAy?$AA?$AA@ 1001d73c     LIBCMT:nlsdata2.obj
 0002:00006748       ??_C@_19EPFLPGAP@?$AAJ?$AAu?$AAn?$AAe?$AA?$AA@ 1001d748     LIBCMT:nlsdata2.obj
 0002:00006754       ??_C@_1M@GJNLMHFD@?$AAA?$AAp?$AAr?$AAi?$AAl?$AA?$AA@ 1001d754     LIBCMT:nlsdata2.obj
 0002:00006760       ??_C@_1M@IKEENEDF@?$AAM?$AAa?$AAr?$AAc?$AAh?$AA?$AA@ 1001d760     LIBCMT:nlsdata2.obj
 0002:0000676c       ??_C@_1BC@JGDDFFAM@?$AAF?$AAe?$AAb?$AAr?$AAu?$AAa?$AAr?$AAy?$AA?$AA@ 1001d76c     LIBCMT:nlsdata2.obj
 0002:00006780       ??_C@_1BA@EFMEIEBA@?$AAJ?$AAa?$AAn?$AAu?$AAa?$AAr?$AAy?$AA?$AA@ 1001d780     LIBCMT:nlsdata2.obj
 0002:00006790       ??_C@_17EGKACKIF@?$AAD?$AAe?$AAc?$AA?$AA@ 1001d790     LIBCMT:nlsdata2.obj
 0002:00006798       ??_C@_17BBDMLCIG@?$AAN?$AAo?$AAv?$AA?$AA@ 1001d798     LIBCMT:nlsdata2.obj
 0002:000067a0       ??_C@_17FNLKOI@?$AAO?$AAc?$AAt?$AA?$AA@ 1001d7a0     LIBCMT:nlsdata2.obj
 0002:000067a8       ??_C@_17HCHCOKMG@?$AAS?$AAe?$AAp?$AA?$AA@ 1001d7a8     LIBCMT:nlsdata2.obj
 0002:000067b0       ??_C@_17ICPELBCN@?$AAA?$AAu?$AAg?$AA?$AA@ 1001d7b0     LIBCMT:nlsdata2.obj
 0002:000067b8       ??_C@_17IJPCKHK@?$AAJ?$AAu?$AAl?$AA?$AA@ 1001d7b8     LIBCMT:nlsdata2.obj
 0002:000067c0       ??_C@_17KCJGOCPB@?$AAJ?$AAu?$AAn?$AA?$AA@ 1001d7c0     LIBCMT:nlsdata2.obj
 0002:000067c8       ??_C@_17PNNKMEED@?$AAM?$AAa?$AAy?$AA?$AA@ 1001d7c8     LIBCMT:nlsdata2.obj
 0002:000067d0       ??_C@_17LFPOIHDD@?$AAA?$AAp?$AAr?$AA?$AA@ 1001d7d0     LIBCMT:nlsdata2.obj
 0002:000067d8       ??_C@_17CKNLEDEC@?$AAM?$AAa?$AAr?$AA?$AA@ 1001d7d8     LIBCMT:nlsdata2.obj
 0002:000067e0       ??_C@_17LMDJEKJN@?$AAF?$AAe?$AAb?$AA?$AA@ 1001d7e0     LIBCMT:nlsdata2.obj
 0002:000067e8       ??_C@_17DKNBKCHM@?$AAJ?$AAa?$AAn?$AA?$AA@ 1001d7e8     LIBCMT:nlsdata2.obj
 0002:000067f0       ??_C@_1BC@ENMNNPAJ@?$AAS?$AAa?$AAt?$AAu?$AAr?$AAd?$AAa?$AAy?$AA?$AA@ 1001d7f0     LIBCMT:nlsdata2.obj
 0002:00006804       ??_C@_1O@PDICJHAG@?$AAF?$AAr?$AAi?$AAd?$AAa?$AAy?$AA?$AA@ 1001d804     LIBCMT:nlsdata2.obj
 0002:00006814       ??_C@_1BC@HHMNLIHE@?$AAT?$AAh?$AAu?$AAr?$AAs?$AAd?$AAa?$AAy?$AA?$AA@ 1001d814     LIBCMT:nlsdata2.obj
 0002:00006828       ??_C@_1BE@EBOGMDOH@?$AAW?$AAe?$AAd?$AAn?$AAe?$AAs?$AAd?$AAa?$AAy?$AA?$AA@ 1001d828     LIBCMT:nlsdata2.obj
 0002:0000683c       ??_C@_1BA@ENFBFFEK@?$AAT?$AAu?$AAe?$AAs?$AAd?$AAa?$AAy?$AA?$AA@ 1001d83c     LIBCMT:nlsdata2.obj
 0002:0000684c       ??_C@_1O@MMNBFLIA@?$AAM?$AAo?$AAn?$AAd?$AAa?$AAy?$AA?$AA@ 1001d84c     LIBCMT:nlsdata2.obj
 0002:0000685c       ??_C@_1O@IHNHDHPB@?$AAS?$AAu?$AAn?$AAd?$AAa?$AAy?$AA?$AA@ 1001d85c     LIBCMT:nlsdata2.obj
 0002:0000686c       ??_C@_17GGIBDPIH@?$AAS?$AAa?$AAt?$AA?$AA@ 1001d86c     LIBCMT:nlsdata2.obj
 0002:00006874       ??_C@_17HFOLPPLP@?$AAF?$AAr?$AAi?$AA?$AA@ 1001d874     LIBCMT:nlsdata2.obj
 0002:0000687c       ??_C@_17PDPHAADD@?$AAT?$AAh?$AAu?$AA?$AA@ 1001d87c     LIBCMT:nlsdata2.obj
 0002:00006884       ??_C@_17CJEDCEPE@?$AAW?$AAe?$AAd?$AA?$AA@ 1001d884     LIBCMT:nlsdata2.obj
 0002:0000688c       ??_C@_17BMKGEGOJ@?$AAT?$AAu?$AAe?$AA?$AA@ 1001d88c     LIBCMT:nlsdata2.obj
 0002:00006894       ??_C@_17KBOMKBF@?$AAM?$AAo?$AAn?$AA?$AA@ 1001d894     LIBCMT:nlsdata2.obj
 0002:0000689c       ??_C@_17MBGCMIPB@?$AAS?$AAu?$AAn?$AA?$AA@ 1001d89c     LIBCMT:nlsdata2.obj
 0002:000068a4       ??_C@_08JCCMCCIL@HH?3mm?3ss?$AA@ 1001d8a4     LIBCMT:nlsdata2.obj
 0002:000068b0       ??_C@_0BE@CKGJFCPC@dddd?0?5MMMM?5dd?0?5yyyy?$AA@ 1001d8b0     LIBCMT:nlsdata2.obj
 0002:000068c4       ??_C@_08BPBNCDIB@MM?1dd?1yy?$AA@ 1001d8c4     LIBCMT:nlsdata2.obj
 0002:000068d0       ??_C@_02CJNFDJBF@PM?$AA@   1001d8d0     LIBCMT:nlsdata2.obj
 0002:000068d4       ??_C@_02DEDBPAFC@AM?$AA@   1001d8d4     LIBCMT:nlsdata2.obj
 0002:000068d8       ??_C@_08EDHMEBNP@December?$AA@ 1001d8d8     LIBCMT:nlsdata2.obj
 0002:000068e4       ??_C@_08HCHEGEOA@November?$AA@ 1001d8e4     LIBCMT:nlsdata2.obj
 0002:000068f0       ??_C@_07JJNFCEND@October?$AA@ 1001d8f0     LIBCMT:nlsdata2.obj
 0002:000068f8       ??_C@_09BHHEALKD@September?$AA@ 1001d8f8     LIBCMT:nlsdata2.obj
 0002:00006904       ??_C@_06LBBHFDDG@August?$AA@ 1001d904     LIBCMT:nlsdata2.obj
 0002:0000690c       ??_C@_04MIEPOIFP@July?$AA@ 1001d90c     LIBCMT:nlsdata2.obj
 0002:00006914       ??_C@_04CNLMGBGM@June?$AA@ 1001d914     LIBCMT:nlsdata2.obj
 0002:0000691c       ??_C@_05DMJDNLEJ@April?$AA@ 1001d91c     LIBCMT:nlsdata2.obj
 0002:00006924       ??_C@_05HPCKOFNC@March?$AA@ 1001d924     LIBCMT:nlsdata2.obj
 0002:0000692c       ??_C@_08GNJGEPFN@February?$AA@ 1001d92c     LIBCMT:nlsdata2.obj
 0002:00006938       ??_C@_07CGJPFGJA@January?$AA@ 1001d938     LIBCMT:nlsdata2.obj
 0002:00006940       ??_C@_03MKABNOCG@Dec?$AA@  1001d940     LIBCMT:nlsdata2.obj
 0002:00006944       ??_C@_03JPJOFNIA@Nov?$AA@  1001d944     LIBCMT:nlsdata2.obj
 0002:00006948       ??_C@_03BMAOKBAD@Oct?$AA@  1001d948     LIBCMT:nlsdata2.obj
 0002:0000694c       ??_C@_03GGCAPAJC@Sep?$AA@  1001d94c     LIBCMT:nlsdata2.obj
 0002:00006950       ??_C@_03IFJFEIGA@Aug?$AA@  1001d950     LIBCMT:nlsdata2.obj
 0002:00006954       ??_C@_03LBGABGKK@Jul?$AA@  1001d954     LIBCMT:nlsdata2.obj
 0002:00006958       ??_C@_03IDFGHECI@Jun?$AA@  1001d958     LIBCMT:nlsdata2.obj
 0002:0000695c       ??_C@_03CNMDKL@May?$AA@    1001d95c     LIBCMT:nlsdata2.obj
 0002:00006960       ??_C@_03LEOLGMJP@Apr?$AA@  1001d960     LIBCMT:nlsdata2.obj
 0002:00006964       ??_C@_03ODNJBKGA@Mar?$AA@  1001d964     LIBCMT:nlsdata2.obj
 0002:00006968       ??_C@_03HJBDCHOM@Feb?$AA@  1001d968     LIBCMT:nlsdata2.obj
 0002:0000696c       ??_C@_03JIHJHPIE@Jan?$AA@  1001d96c     LIBCMT:nlsdata2.obj
 0002:00006970       ??_C@_08INBOOONO@Saturday?$AA@ 1001d970     LIBCMT:nlsdata2.obj
 0002:0000697c       ??_C@_06JECMNKMI@Friday?$AA@ 1001d97c     LIBCMT:nlsdata2.obj
 0002:00006984       ??_C@_08HACCIKIA@Thursday?$AA@ 1001d984     LIBCMT:nlsdata2.obj
 0002:00006990       ??_C@_09DLIGFAKA@Wednesday?$AA@ 1001d990     LIBCMT:nlsdata2.obj
 0002:0000699c       ??_C@_07BAAGCFCM@Tuesday?$AA@ 1001d99c     LIBCMT:nlsdata2.obj
 0002:000069a4       ??_C@_06JLEDEDGH@Monday?$AA@ 1001d9a4     LIBCMT:nlsdata2.obj
 0002:000069ac       ??_C@_06OOPIFAJ@Sunday?$AA@ 1001d9ac     LIBCMT:nlsdata2.obj
 0002:000069b4       ??_C@_03FEFJNEK@Sat?$AA@   1001d9b4     LIBCMT:nlsdata2.obj
 0002:000069b8       ??_C@_03IDIOELNC@Fri?$AA@  1001d9b8     LIBCMT:nlsdata2.obj
 0002:000069bc       ??_C@_03IOFIKPDN@Thu?$AA@  1001d9bc     LIBCMT:nlsdata2.obj
 0002:000069c0       ??_C@_03MHOMLAJA@Wed?$AA@  1001d9c0     LIBCMT:nlsdata2.obj
 0002:000069c4       ??_C@_03NAGEINEP@Tue?$AA@  1001d9c4     LIBCMT:nlsdata2.obj
 0002:000069c8       ??_C@_03PDAGKDH@Mon?$AA@   1001d9c8     LIBCMT:nlsdata2.obj
 0002:000069cc       ??_C@_03KOEHGMDN@Sun?$AA@  1001d9cc     LIBCMT:nlsdata2.obj
 0002:000069d0       ___lookuptable_s           1001d9d0     LIBCMT:outputs.obj
 0002:00006a30       ___newctype                1001da30     LIBCMT:ctype.obj
 0002:00006d30       __wctype                   1001dd30     LIBCMT:ctype.obj
 0002:00006f38       ___newclmap                1001df38     LIBCMT:ctype.obj
 0002:000070b8       ___newcumap                1001e0b8     LIBCMT:ctype.obj
 0002:000072b8       ??_C@_06IMKFLFPG@1?$CDQNAN?$AA@ 1001e2b8     LIBCMT:_x10fout_.obj
 0002:000072c0       ??_C@_05DNEBIAHO@1?$CDINF?$AA@ 1001e2c0     LIBCMT:_x10fout_.obj
 0002:000072c8       ??_C@_05PHHOCPM@1?$CDIND?$AA@ 1001e2c8     LIBCMT:_x10fout_.obj
 0002:000072d0       ??_C@_06PGGFOGJG@1?$CDSNAN?$AA@ 1001e2d0     LIBCMT:_x10fout_.obj
 0002:000072d8       ??_C@_1BA@BALFACEM@?$AAC?$AAO?$AAN?$AAO?$AAU?$AAT?$AA$?$AA?$AA@ 1001e2d8     LIBCMT:initcon.obj
 0002:000072e8       __load_config_used         1001e2e8     LIBCMT:loadcfg.obj
 0002:00007330       ___safe_se_handler_table   1001e330     <linker-defined>
 0002:0000733c       ___rtc_iaa                 1001e33c     LIBCMT:_initsect_.obj
 0002:00007340       ___rtc_izz                 1001e340     LIBCMT:_initsect_.obj
 0002:00007344       ___rtc_taa                 1001e344     LIBCMT:_initsect_.obj
 0002:00007348       ___rtc_tzz                 1001e348     LIBCMT:_initsect_.obj
 0002:00007644       __IMPORT_DESCRIPTOR_KERNEL32 1001e644     kernel32:KERNEL32.dll
 0002:00007658       __NULL_IMPORT_DESCRIPTOR   1001e658     kernel32:KERNEL32.dll
 0003:000003c8       _testmodel_1109_P          1001f3c8     testmodel_1109_data.obj
 0003:00000d58       _pci20041digout            1001fd58     xpctarget.obj
 0003:00000d5c       _nipcdio24cnfg             1001fd5c     xpctarget.obj
 0003:00000d60       _rtddm6604cnfg             1001fd60     xpctarget.obj
 0003:00000e48       _DefaultCOMIOBase          1001fe48     xpcruntime:xpcimports.obj
 0003:00000e58       _DefaultCOMIRQ             1001fe58     xpcruntime:xpcimports.obj
 0003:00000e68       __fltused                  1001fe68     LIBCMT:_fpinit_.obj
 0003:00000e6c       __ldused                   1001fe6c     LIBCMT:_fpinit_.obj
 0003:00000e80       __iob                      1001fe80     LIBCMT:_file.obj
 0003:00001100       ___security_cookie         10020100     LIBCMT:gs_cookie.obj
 0003:00001104       ___security_cookie_complement 10020104     LIBCMT:gs_cookie.obj
 0003:000012e0       __cfltcvt_tab              100202e0     LIBCMT:cmiscdat.obj
 0003:00001310       ___nullstring              10020310     LIBCMT:output.obj
 0003:00001314       ___wnullstring             10020314     LIBCMT:output.obj
 0003:00001320       __d_inf                    10020320     LIBCMT:_util_.obj
 0003:00001328       __d_ind                    10020328     LIBCMT:_util_.obj
 0003:00001330       __d_max                    10020330     LIBCMT:_util_.obj
 0003:00001338       __d_min                    10020338     LIBCMT:_util_.obj
 0003:00001340       __d_mzero                  10020340     LIBCMT:_util_.obj
 0003:00001450       ___badioinfo               10020450     LIBCMT:ioinit.obj
 0003:000015b0       __lookuptrailbytes         100205b0     LIBCMT:read.obj
 0003:000016b0       ___flsindex                100206b0     LIBCMT:tidtable.obj
 0003:000016b4       ___getvalueindex           100206b4     LIBCMT:tidtable.obj
 0003:000016b8       ___abort_behavior          100206b8     LIBCMT:abort.obj
 0003:000016c0       ___initialmbcinfo          100206c0     LIBCMT:mbctype.obj
 0003:000018e0       __mbctype                  100208e0     LIBCMT:mbctype.obj
 0003:000019e8       __mbcasemap                100209e8     LIBCMT:mbctype.obj
 0003:00001ae8       ___ptmbcinfo               10020ae8     LIBCMT:mbctype.obj
 0003:00001be0       ___globallocalestatus      10020be0     LIBCMT:glstatus.obj
 0003:00001be4       ___clocalestr              10020be4     LIBCMT:nlsdata2.obj
 0003:00001be8       ___lc_time_c               10020be8     LIBCMT:nlsdata2.obj
 0003:00001d50       ___initiallocinfo          10020d50     LIBCMT:nlsdata2.obj
 0003:00001e28       ___ptlocinfo               10020e28     LIBCMT:nlsdata2.obj
 0003:00001e30       __matherr_flag             10020e30     LIBCMT:_matherr_.obj
 0003:00001e40       __NLG_Destination          10020e40     LIBCMT:exsup.obj
 0003:00001e50       ___lconv_static_decimal    10020e50     LIBCMT:lconv.obj
 0003:00001e54       ___lconv_static_W_decimal  10020e54     LIBCMT:lconv.obj
 0003:00001e58       ___lconv_c                 10020e58     LIBCMT:lconv.obj
 0003:00001ea8       ___lconv                   10020ea8     LIBCMT:lconv.obj
 0003:00001eac       __pctype                   10020eac     LIBCMT:ctype.obj
 0003:00001eb0       __pwctype                  10020eb0     LIBCMT:ctype.obj
 0003:00001ee8       __confh                    10020ee8     LIBCMT:initcon.obj
 0003:00001ef0       ___mb_cur_max              10020ef0     LIBCMT:nlsdata1.obj
 0003:00001ef4       ___decimal_point           10020ef4     LIBCMT:nlsdata1.obj
 0003:00001ef8       ___decimal_point_length    10020ef8     LIBCMT:nlsdata1.obj
 0003:00001f00       __pow10pos                 10020f00     LIBCMT:_constpow_.obj
 0003:00002060       __pow10neg                 10021060     LIBCMT:_constpow_.obj
 0003:00002218       _pci20098PortA             10021218     xpctarget.obj
 0003:0000221c       _pci20098PortB             1002121c     xpctarget.obj
 0003:00002220       _siepowercan_firmware_initialized 10021220     xpctarget.obj
 0003:00002224       _siepowercan_port1_configured 10021224     xpctarget.obj
 0003:00002228       _siepowercan_port2_configured 10021228     xpctarget.obj
 0003:0000222c       _CANAC2_FIRMWARE_LOADED    1002122c     xpctarget.obj
 0003:00002230       _rs232ports                10021230     xpctarget.obj
 0003:00002240       _NI_AT_MIO_16F_5_commreg2  10021240     xpctarget.obj
 0003:00002244       _RTD_DM6430_init           10021244     xpctarget.obj
 0003:00002248       _RTD_DM6420_init           10021248     xpctarget.obj
 0003:0000224c       _CANAC2_FIRMWARE_LOADED_mb1 1002124c     xpctarget.obj
 0003:00002250       _CANAC2_FIRMWARE_LOADED_mb2 10021250     xpctarget.obj
 0003:00002254       _CANAC2_FIRMWARE_LOADED_mb3 10021254     xpctarget.obj
 0003:00002258       _xmlsize                   10021258     xpctarget.obj
 0003:00002560       ___fastflag                10021560     LIBCMT:_fpinit_.obj
 0003:00002568       __cflush                   10021568     LIBCMT:_file.obj
 0003:0000256c       __umaskval                 1002156c     LIBCMT:crt0dat.obj
 0003:00002570       ___argc                    10021570     LIBCMT:crt0dat.obj
 0003:00002574       ___argv                    10021574     LIBCMT:crt0dat.obj
 0003:00002578       ___wargv                   10021578     LIBCMT:crt0dat.obj
 0003:0000257c       __environ                  1002157c     LIBCMT:crt0dat.obj
 0003:00002580       ___initenv                 10021580     LIBCMT:crt0dat.obj
 0003:00002584       __wenviron                 10021584     LIBCMT:crt0dat.obj
 0003:00002588       ___winitenv                10021588     LIBCMT:crt0dat.obj
 0003:0000258c       __pgmptr                   1002158c     LIBCMT:crt0dat.obj
 0003:00002590       __wpgmptr                  10021590     LIBCMT:crt0dat.obj
 0003:00002594       __exitflag                 10021594     LIBCMT:crt0dat.obj
 0003:00002598       __C_Termination_Done       10021598     LIBCMT:crt0dat.obj
 0003:0000259c       __C_Exit_Done              1002159c     LIBCMT:crt0dat.obj
 0003:000025a4       __aenvptr                  100215a4     LIBCMT:dllcrt0.obj
 0003:000025a8       __wenvptr                  100215a8     LIBCMT:dllcrt0.obj
 0003:000025ac       ___error_mode              100215ac     LIBCMT:dllcrt0.obj
 0003:000025b0       ___app_type                100215b0     LIBCMT:dllcrt0.obj
 0003:00002be0       __crtheap                  10021be0     LIBCMT:heapinit.obj
 0003:00002be4       ?_pnhHeap@@3P6AHI@ZA       10021be4     LIBCMT:handler.obj
 0003:00002be8       __newmode                  10021be8     LIBCMT:_newmode.obj
 0003:00002bf0       __stdbuf                   10021bf0     LIBCMT:_sftbuf.obj
 0003:00002bf8       ___pInvalidArgHandler      10021bf8     LIBCMT:invarg.obj
 0003:00002bfc       __maxwait                  10021bfc     LIBCMT:crtheap.obj
 0003:00003074       ?__pInconsistency@@3P6AXXZA 10022074     LIBCMT:hooks.obj
 0003:00003090       ___pPurecall               10022090     LIBCMT:inithelp.obj
 0003:00003094       _gpFlsAlloc                10022094     LIBCMT:tidtable.obj
 0003:00003098       _gpFlsGetValue             10022098     LIBCMT:tidtable.obj
 0003:0000309c       _gpFlsSetValue             1002209c     LIBCMT:tidtable.obj
 0003:000030a0       _gpFlsFree                 100220a0     LIBCMT:tidtable.obj
 0003:000031c4       ___mbulinfo                100221c4     LIBCMT:mbctype.obj
 0003:000031d0       ___mbcodepage              100221d0     LIBCMT:mbctype.obj
 0003:000031d4       ___ismbcodepage            100221d4     LIBCMT:mbctype.obj
 0003:000031d8       ___mblcid                  100221d8     LIBCMT:mbctype.obj
 0003:000031dc       __outputformat             100221dc     LIBCMT:outputformat.obj
 0003:000031e0       __commode                  100221e0     LIBCMT:ncommode.obj
 0003:000031e4       ___lconv_static_null       100221e4     LIBCMT:lconv.obj
 0003:000031e8       ___lconv_static_W_null     100221e8     LIBCMT:lconv.obj
 0003:000031ec       ___locale_changed          100221ec     LIBCMT:setlocal.obj
 0003:000031f0       __fmode                    100221f0     LIBCMT:txtmode.obj
 0003:00003200       _ptrWritePointer2          10022200     <common>
 0003:00003210       _ptrWritePointer1          10022210     <common>
 0003:00003220       _rtInf                     10022220     <common>
 0003:00003228       _rtMinusInfF               10022228     <common>
 0003:0000322c       _rtInfF                    1002222c     <common>
 0003:00003230       _rtMinusInf                10022230     <common>
 0003:00003238       _rtNaN                     10022238     <common>
 0003:00003240       _rtNaNF                    10022240     <common>
 0003:00003260       _testmodel_1109_DW         10022260     <common>
 0003:000073e0       _testmodel_1109_B          100263e0     <common>
 0003:000079e8       _testmodel_1109_PrevZCX    100269e8     <common>
 0003:00007a00       _testmodel_1109_M_         10026a00     <common>
 0003:0000a010       _xpcInpB                   10029010     <common>
 0003:0000a014       _rl32eReceiveChar          10029014     <common>
 0003:0000a018       _xpceUDPClose              10029018     <common>
 0003:0000a01c       _rl32eScopeExists          1002901c     <common>
 0003:0000a020       _CreateVideoDisplay        10029020     <common>
 0003:0000a024       _xpceCreateSemaphore       10029024     <common>
 0003:0000a028       _xpceSetParameter          10029028     <common>
 0003:0000a02c       _TBTakeSpinFast            1002902c     <common>
 0003:0000a030       _xpcGetElapsedTime         10029030     <common>
 0003:0000a034       _xpceUDPSend               10029034     <common>
 0003:0000a038       _rl32eSetTargetScope       10029038     <common>
 0003:0000a03c       _rl32eAddSignal            1002903c     <common>
 0003:0000a040       _xpceAssignPCIInterrupt    10029040     <common>
 0003:0000a044       _xpceSignalSemaphore       10029044     <common>
 0003:0000a048       _StartVideo                10029048     <common>
 0003:0000a04c       _startToAsyncQueueTgtAppSvc 1002904c     <common>
 0003:0000a050       _rl32eSetTargetScopeSigFt  10029050     <common>
 0003:0000a054       _rl32eSetScope             10029054     <common>
 0003:0000a058       _xpceUDPOpenReceive        10029058     <common>
 0003:0000a05c       _xpcReserveMemoryRegion    1002905c     <common>
 0003:0000a060       _getCommService            10029060     <common>
 0003:0000a064       _rl32eGetPCIInfoAtSlot     10029064     <common>
 0003:0000a068       _GetVideoConfigs           10029068     <common>
 0003:0000a06c       _rl32eReceiveBufferCount   1002906c     <common>
 0003:0000a070       _rl32eSendBlock            10029070     <common>
 0003:0000a074       _StartVideoDisplay         10029074     <common>
 0003:0000a078       _ReadFrameBuffer           10029078     <common>
 0003:0000a07c       _xpceDeRegisterISR         1002907c     <common>
 0003:0000a080       _xpceFSScopeSet            10029080     <common>
 0003:0000a084       _rl32eCloseCOMPort         10029084     <common>
 0003:0000a088       _TBDeleteSpin              10029088     <common>
 0003:0000a08c       _rl32eRestartAcquisition   1002908c     <common>
 0003:0000a090       _rl32eDefScope             10029090     <common>
 0003:0000a094       _rl32eShowPCIInfo          10029094     <common>
 0003:0000a098       _xpcOutpB                  10029098     <common>
 0003:0000a09c       _xpceWaitSemaphore         1002909c     <common>
 0003:0000a0a0       _rl32eSendChar             100290a0     <common>
 0003:0000a0a4       _sendToAsyncQueueTgtAppSvc 100290a4     <common>
 0003:0000a0a8       _xpceDeleteSemaphore       100290a8     <common>
 0003:0000a0ac       _getStatusFlags            100290ac     <common>
 0003:0000a0b0       _rl32eGetSignalNo          100290b0     <common>
 0003:0000a0b4       _xpceGetTET                100290b4     <common>
 0003:0000a0b8       _xpceGetParameter          100290b8     <common>
 0003:0000a0bc       _StopVideo                 100290bc     <common>
 0003:0000a0c0       _getMemoryService          100290c0     <common>
 0003:0000a0c4       _terminateToAsyncQueueTgtAppSvc 100290c4     <common>
 0003:0000a0c8       _xpcBusyWait               100290c8     <common>
 0003:0000a0cc       _FindUsbVideoDevice        100290cc     <common>
 0003:0000a0d0       _xpceaddEvent              100290d0     <common>
 0003:0000a0d4       _rl32eLineStatus           100290d4     <common>
 0003:0000a0d8       _ConvertUImage             100290d8     <common>
 0003:0000a0dc       _xpceGetParamDims          100290dc     <common>
 0003:0000a0e0       _xpcIsModelInit            100290e0     <common>
 0003:0000a0e4       _xpceFTReadTime            100290e4     <common>
 0003:0000a0e8       _rl32eGetPCIInfo           100290e8     <common>
 0003:0000a0ec       _DestroyVideoDisplay       100290ec     <common>
 0003:0000a0f0       _xpceUDPReceive            100290f0     <common>
 0003:0000a0f4       _xpceFTSubtract            100290f4     <common>
 0003:0000a0f8       _TBCreateSpin              100290f8     <common>
 0003:0000a0fc       _rl32eShowPCIDev           100290fc     <common>
 0003:0000a100       _xpceFTAdd                 10029100     <common>
 0003:0000a104       _xpcFreePhysicalMemory     10029104     <common>
 0003:0000a108       _xpcAllocPhysicalMemory    10029108     <common>
 0003:0000a10c       _StreamVideo               1002910c     <common>
 0003:0000a110       _xpceScopeAcqOK            10029110     <common>
 0003:0000a114       _xpcInpDW                  10029114     <common>
 0003:0000a118       _xpcOutpDW                 10029118     <common>
 0003:0000a11c       _rl32eInitCOMPort          1002911c     <common>
 0003:0000a120       _StopVideoDisplay          10029120     <common>
 0003:0000a124       _xpcOutpW                  10029124     <common>
 0003:0000a128       _xpceGetSignalValue        10029128     <common>
 0003:0000a12c       _xpceUDPOpenSend           1002912c     <common>
 0003:0000a130       _xpcInpW                   10029130     <common>
 0003:0000a134       _TBGiveSpinFast            10029134     <common>
 0003:0000a138       _xpceRegisterISR           10029138     <common>
 0003:0000a13c       __debugger_hook_dummy      1002913c     <common>
 0003:0000a140       __nhandle                  10029140     <common>
 0003:0000a160       ___pioinfo                 10029160     <common>
 0003:0000a260       __pDestructExceptionObject 10029260     <common>
 0003:0000a264       ___sse2_available          10029264     <common>
 0003:0000a268       ___use_sse2_mathfcns       10029268     <common>
 0003:0000a26c       __pmatherr                 1002926c     <common>
 0003:0000a270       __acmdln                   10029270     <common>
 0003:0000a274       ___env_initialized         10029274     <common>
 0003:0000a278       ___onexitend               10029278     <common>
 0003:0000a27c       ___onexitbegin             1002927c     <common>
 0003:0000a280       ___mbctype_initialized     10029280     <common>
 0003:0000a284       ___dyn_tls_init_callback   10029284     <common>
 0003:0000a288       ___piob                    10029288     <common>
 0003:0000a2a0       __bufin                    100292a0     <common>
 0003:0000b2a0       __nstream                  1002a2a0     <common>

 entry point at        0001:0000a858

 Static symbols

 0001:000003c0       _testmodel_1109_output     100013c0 f   testmodel_1109.obj
 0001:00002890       _testmodel_1109_update     10003890 f   testmodel_1109.obj
 0001:000029c0       _testmodel_1109_initialize 100039c0 f   testmodel_1109.obj
 0001:00003800       _testmodel_1109_terminate  10004800 f   testmodel_1109.obj
 0001:00005340       _mdlOutputs                10006340 f   xpctarget.obj
 0001:00005340       _mdlTerminate              10006340 f   xpctarget.obj
 0001:00005500       _zffbcd1020c               10006500 f   sg_IO601_write_s_3.obj
 0001:00005680       _z50a448c4af               10006680 f   sg_IO601_write_s_3.obj
 0001:00005820       _mdlInitializeSizes        10006820 f   sg_IO601_write_s_3.obj
 0001:000059b0       _mdlInitializeSampleTimes  100069b0 f   sg_IO601_write_s_3.obj
 0001:00005a20       _mdlStart                  10006a20 f   sg_IO601_write_s_3.obj
 0001:00005e10       _mdlOutputs                10006e10 f   sg_IO601_write_s_3.obj
 0001:00006080       _mdlTerminate              10007080 f   sg_IO601_write_s_3.obj
 0001:000062e0       _z2521217c2d               100072e0 f   sg_IO601_setup_s_3.obj
 0001:00006370       _z36e52286a2               10007370 f   sg_IO601_setup_s_3.obj
 0001:000063a0       _z2cb48b8ffe               100073a0 f   sg_IO601_setup_s_3.obj
 0001:000063e0       _z49452fc13f               100073e0 f   sg_IO601_setup_s_3.obj
 0001:00006460       _mdlInitializeSizes        10007460 f   sg_IO601_setup_s_3.obj
 0001:000064d0       _mdlInitializeSampleTimes  100074d0 f   sg_IO601_setup_s_3.obj
 0001:000064f0       _mdlStart                  100074f0 f   sg_IO601_setup_s_3.obj
 0001:00007100       _mdlTerminate              10008100 f   sg_IO601_setup_s_3.obj
 0001:00007260       _z825df60379               10008260 f   sg_IO601_read_s_3.obj
 0001:000074b0       _mdlInitializeSizes        100084b0 f   sg_IO601_read_s_3.obj
 0001:00007600       _mdlInitializeSampleTimes  10008600 f   sg_IO601_read_s_3.obj
 0001:00007670       _mdlStart                  10008670 f   sg_IO601_read_s_3.obj
 0001:000077a0       _mdlOutputs                100087a0 f   sg_IO601_read_s_3.obj
 0001:00007d40       _getPciDeviceAtSlot        10008d40 f   xpcruntime:xpcimports.obj
 0001:00008a20       _getPciDevice              10009a20 f   xpcruntime:xpcimports.obj
 0001:0000a237       _doexit                    1000b237 f   LIBCMT:crt0dat.obj
 0001:0000a762       ___DllMainCRTStartup       1000b762 f   LIBCMT:dllcrt0.obj
 0001:0000ad72       __shift                    1000bd72 f   LIBCMT:cvt.obj
 0001:0000adb7       __cftoe2_l                 1000bdb7 f   LIBCMT:cvt.obj
 0001:0000b375       __cftof2_l                 1000c375 f   LIBCMT:cvt.obj
 0001:0000c493       _write_char                1000d493 f   LIBCMT:output.obj
 0001:0000c4c6       _write_string              1000d4c6 f   LIBCMT:output.obj
 0001:0000e403       _flsall                    1000f403 f   LIBCMT:fflush.obj
 0001:0000f400       __unwind_handler4          10010400 f   LIBCMT:exsup4.obj
 0001:0000f52a       _siglookup                 1001052a f   LIBCMT:winsig.obj
 0001:0000fc11       __onexit_nolock            10010c11 f   LIBCMT:onexit.obj
 0001:00010366       _parse_cmdline             10011366 f   LIBCMT:stdargv.obj
 0001:0001091d       ?CPtoLCID@@YAHH@Z          1001191d f   LIBCMT:mbctype.obj
 0001:0001094c       ?setSBCS@@YAXPAUthreadmbcinfostruct@@@Z 1001194c f   LIBCMT:mbctype.obj
 0001:000109b0       ?setSBUpLow@@YAXPAUthreadmbcinfostruct@@@Z 100119b0 f   LIBCMT:mbctype.obj
 0001:00010be4       ?getSystemCP@@YAHH@Z       10011be4 f   LIBCMT:mbctype.obj
 0001:00012410       __unwind_handler           10013410 f   LIBCMT:exsup.obj
 0001:0001257a       ?x_ismbbtype_l@@YAHPAUlocaleinfo_struct@@IHH@Z 1001357a f   LIBCMT:ismbbyte.obj
 0001:000125e5       ?__crtLCMapStringA_stat@@YAHPAUlocaleinfo_struct@@KKPBDHPADHHH@Z 100135e5 f   LIBCMT:a_map.obj
 0001:00012812       ?__crtGetStringTypeA_stat@@YAHPAUlocaleinfo_struct@@KPBDHPAGHHH@Z 10013812 f   LIBCMT:a_str.obj
 0001:00014945       __hw_cw                    10015945 f   LIBCMT:_ieee87_.obj
 0001:000149d3       ___hw_cw_sse2              100159d3 f   LIBCMT:_ieee87_.obj
